

Microchip MPLAB XC8 Assembler V2.31 build 20201012212115 
                                                                                               Mon Feb 15 18:24:22 2021

Microchip MPLAB XC8 C Compiler v2.31 (Free license) build 20201012212115 Og1 
     1                           	processor	16F887
     2                           	pagewidth 120
     3                           	opt	flic
     4                           	psect	cinit,global,class=CODE,merge=1,delta=2
     5                           	psect	bssCOMMON,global,class=COMMON,space=1,delta=1,noexec
     6                           	psect	cstackCOMMON,global,class=COMMON,space=1,delta=1,noexec
     7                           	psect	cstackBANK0,global,class=BANK0,space=1,delta=1,noexec
     8                           	psect	maintext,global,class=CODE,split=1,delta=2
     9                           	psect	text1,local,class=CODE,merge=1,delta=2
    10                           	psect	text2,local,class=CODE,merge=1,delta=2
    11                           	psect	text3,local,class=CODE,merge=1,delta=2
    12                           	psect	text4,local,class=CODE,merge=1,delta=2,group=1
    13                           	psect	text5,local,class=CODE,merge=1,delta=2,group=1
    14                           	psect	text6,local,class=CODE,merge=1,delta=2,group=1
    15                           	psect	text7,local,class=CODE,merge=1,delta=2,group=1
    16                           	psect	text8,local,class=CODE,merge=1,delta=2
    17                           	psect	intentry,global,class=CODE,delta=2
    18                           	psect	text9,local,class=CODE,merge=1,delta=2
    19                           	psect	text10,local,class=CODE,merge=1,delta=2
    20                           	psect	text11,local,class=CODE,merge=1,delta=2
    21                           	psect	config,global,abs,ovrld,class=CONFIG,space=4,delta=2,noexec
    22                           	dabs	1,0x7E,2
    23  0000                     
    24                           ; Version 2.20
    25                           ; Generated 12/02/2020 GMT
    26                           ; 
    27                           ; Copyright © 2020, Microchip Technology Inc. and its subsidiaries ("Microchip")
    28                           ; All rights reserved.
    29                           ; 
    30                           ; This software is developed by Microchip Technology Inc. and its subsidiaries ("Microch
      +                          ip").
    31                           ; 
    32                           ; Redistribution and use in source and binary forms, with or without modification, are
    33                           ; permitted provided that the following conditions are met:
    34                           ; 
    35                           ;     1. Redistributions of source code must retain the above copyright notice, this lis
      +                          t of
    36                           ;        conditions and the following disclaimer.
    37                           ; 
    38                           ;     2. Redistributions in binary form must reproduce the above copyright notice, this 
      +                          list
    39                           ;        of conditions and the following disclaimer in the documentation and/or other
    40                           ;        materials provided with the distribution.
    41                           ; 
    42                           ;     3. Microchip's name may not be used to endorse or promote products derived from th
      +                          is
    43                           ;        software without specific prior written permission.
    44                           ; 
    45                           ; THIS SOFTWARE IS PROVIDED BY MICROCHIP "AS IS" AND ANY EXPRESS OR IMPLIED WARRANTIES,
    46                           ; INCLUDING, BUT NOT LIMITED TO, THE IMPLIED WARRANTIES OF MERCHANTABILITY AND FITNESS F
      +                          OR
    47                           ; PURPOSE ARE DISCLAIMED.  IN NO EVENT SHALL MICROCHIP BE LIABLE FOR ANY DIRECT, INDIREC
      +                          T,
    48                           ; INCIDENTAL, SPECIAL, EXEMPLARY, OR CONSEQUENTIAL DAMAGES (INCLUDING BUT NOT LIMITED TO
    49                           ; PROCUREMENT OF SUBSTITUTE GOODS OR SERVICES; LOSS OF USE, DATA OR PROFITS; OR BUSINESS
    50                           ; INTERRUPTION) HOWSOEVER CAUSED AND ON ANY THEORY OF LIABILITY, WHETHER IN CONTRACT, ST
      +                          RICT
    51                           ; LIABILITY, OR TORT (INCLUDING NEGLIGENCE OR OTHERWISE) ARISING IN ANY WAY OUT OF THE U
      +                          SE OF
    52                           ; THIS SOFTWARE, EVEN IF ADVISED OF THE POSSIBILITY OF SUCH DAMAGE.
    53                           ; 
    54                           ; 
    55                           ; Code-generator required, PIC16F887 Definitions
    56                           ; 
    57                           ; SFR Addresses
    58  0000                     	;# 
    59  0001                     	;# 
    60  0002                     	;# 
    61  0003                     	;# 
    62  0004                     	;# 
    63  0005                     	;# 
    64  0006                     	;# 
    65  0007                     	;# 
    66  0008                     	;# 
    67  0009                     	;# 
    68  000A                     	;# 
    69  000B                     	;# 
    70  000C                     	;# 
    71  000D                     	;# 
    72  000E                     	;# 
    73  000E                     	;# 
    74  000F                     	;# 
    75  0010                     	;# 
    76  0011                     	;# 
    77  0012                     	;# 
    78  0013                     	;# 
    79  0014                     	;# 
    80  0015                     	;# 
    81  0015                     	;# 
    82  0016                     	;# 
    83  0017                     	;# 
    84  0018                     	;# 
    85  0019                     	;# 
    86  001A                     	;# 
    87  001B                     	;# 
    88  001B                     	;# 
    89  001C                     	;# 
    90  001D                     	;# 
    91  001E                     	;# 
    92  001F                     	;# 
    93  0081                     	;# 
    94  0085                     	;# 
    95  0086                     	;# 
    96  0087                     	;# 
    97  0088                     	;# 
    98  0089                     	;# 
    99  008C                     	;# 
   100  008D                     	;# 
   101  008E                     	;# 
   102  008F                     	;# 
   103  0090                     	;# 
   104  0091                     	;# 
   105  0092                     	;# 
   106  0093                     	;# 
   107  0093                     	;# 
   108  0093                     	;# 
   109  0094                     	;# 
   110  0095                     	;# 
   111  0096                     	;# 
   112  0097                     	;# 
   113  0098                     	;# 
   114  0099                     	;# 
   115  009A                     	;# 
   116  009B                     	;# 
   117  009C                     	;# 
   118  009D                     	;# 
   119  009E                     	;# 
   120  009F                     	;# 
   121  0105                     	;# 
   122  0107                     	;# 
   123  0108                     	;# 
   124  0109                     	;# 
   125  010C                     	;# 
   126  010C                     	;# 
   127  010D                     	;# 
   128  010E                     	;# 
   129  010F                     	;# 
   130  0185                     	;# 
   131  0187                     	;# 
   132  0188                     	;# 
   133  0189                     	;# 
   134  018C                     	;# 
   135  018D                     	;# 
   136  0000                     	;# 
   137  0001                     	;# 
   138  0002                     	;# 
   139  0003                     	;# 
   140  0004                     	;# 
   141  0005                     	;# 
   142  0006                     	;# 
   143  0007                     	;# 
   144  0008                     	;# 
   145  0009                     	;# 
   146  000A                     	;# 
   147  000B                     	;# 
   148  000C                     	;# 
   149  000D                     	;# 
   150  000E                     	;# 
   151  000E                     	;# 
   152  000F                     	;# 
   153  0010                     	;# 
   154  0011                     	;# 
   155  0012                     	;# 
   156  0013                     	;# 
   157  0014                     	;# 
   158  0015                     	;# 
   159  0015                     	;# 
   160  0016                     	;# 
   161  0017                     	;# 
   162  0018                     	;# 
   163  0019                     	;# 
   164  001A                     	;# 
   165  001B                     	;# 
   166  001B                     	;# 
   167  001C                     	;# 
   168  001D                     	;# 
   169  001E                     	;# 
   170  001F                     	;# 
   171  0081                     	;# 
   172  0085                     	;# 
   173  0086                     	;# 
   174  0087                     	;# 
   175  0088                     	;# 
   176  0089                     	;# 
   177  008C                     	;# 
   178  008D                     	;# 
   179  008E                     	;# 
   180  008F                     	;# 
   181  0090                     	;# 
   182  0091                     	;# 
   183  0092                     	;# 
   184  0093                     	;# 
   185  0093                     	;# 
   186  0093                     	;# 
   187  0094                     	;# 
   188  0095                     	;# 
   189  0096                     	;# 
   190  0097                     	;# 
   191  0098                     	;# 
   192  0099                     	;# 
   193  009A                     	;# 
   194  009B                     	;# 
   195  009C                     	;# 
   196  009D                     	;# 
   197  009E                     	;# 
   198  009F                     	;# 
   199  0105                     	;# 
   200  0107                     	;# 
   201  0108                     	;# 
   202  0109                     	;# 
   203  010C                     	;# 
   204  010C                     	;# 
   205  010D                     	;# 
   206  010E                     	;# 
   207  010F                     	;# 
   208  0185                     	;# 
   209  0187                     	;# 
   210  0188                     	;# 
   211  0189                     	;# 
   212  018C                     	;# 
   213  018D                     	;# 
   214  0000                     	;# 
   215  0001                     	;# 
   216  0002                     	;# 
   217  0003                     	;# 
   218  0004                     	;# 
   219  0005                     	;# 
   220  0006                     	;# 
   221  0007                     	;# 
   222  0008                     	;# 
   223  0009                     	;# 
   224  000A                     	;# 
   225  000B                     	;# 
   226  000C                     	;# 
   227  000D                     	;# 
   228  000E                     	;# 
   229  000E                     	;# 
   230  000F                     	;# 
   231  0010                     	;# 
   232  0011                     	;# 
   233  0012                     	;# 
   234  0013                     	;# 
   235  0014                     	;# 
   236  0015                     	;# 
   237  0015                     	;# 
   238  0016                     	;# 
   239  0017                     	;# 
   240  0018                     	;# 
   241  0019                     	;# 
   242  001A                     	;# 
   243  001B                     	;# 
   244  001B                     	;# 
   245  001C                     	;# 
   246  001D                     	;# 
   247  001E                     	;# 
   248  001F                     	;# 
   249  0081                     	;# 
   250  0085                     	;# 
   251  0086                     	;# 
   252  0087                     	;# 
   253  0088                     	;# 
   254  0089                     	;# 
   255  008C                     	;# 
   256  008D                     	;# 
   257  008E                     	;# 
   258  008F                     	;# 
   259  0090                     	;# 
   260  0091                     	;# 
   261  0092                     	;# 
   262  0093                     	;# 
   263  0093                     	;# 
   264  0093                     	;# 
   265  0094                     	;# 
   266  0095                     	;# 
   267  0096                     	;# 
   268  0097                     	;# 
   269  0098                     	;# 
   270  0099                     	;# 
   271  009A                     	;# 
   272  009B                     	;# 
   273  009C                     	;# 
   274  009D                     	;# 
   275  009E                     	;# 
   276  009F                     	;# 
   277  0105                     	;# 
   278  0107                     	;# 
   279  0108                     	;# 
   280  0109                     	;# 
   281  010C                     	;# 
   282  010C                     	;# 
   283  010D                     	;# 
   284  010E                     	;# 
   285  010F                     	;# 
   286  0185                     	;# 
   287  0187                     	;# 
   288  0188                     	;# 
   289  0189                     	;# 
   290  018C                     	;# 
   291  018D                     	;# 
   292  0000                     	;# 
   293  0001                     	;# 
   294  0002                     	;# 
   295  0003                     	;# 
   296  0004                     	;# 
   297  0005                     	;# 
   298  0006                     	;# 
   299  0007                     	;# 
   300  0008                     	;# 
   301  0009                     	;# 
   302  000A                     	;# 
   303  000B                     	;# 
   304  000C                     	;# 
   305  000D                     	;# 
   306  000E                     	;# 
   307  000E                     	;# 
   308  000F                     	;# 
   309  0010                     	;# 
   310  0011                     	;# 
   311  0012                     	;# 
   312  0013                     	;# 
   313  0014                     	;# 
   314  0015                     	;# 
   315  0015                     	;# 
   316  0016                     	;# 
   317  0017                     	;# 
   318  0018                     	;# 
   319  0019                     	;# 
   320  001A                     	;# 
   321  001B                     	;# 
   322  001B                     	;# 
   323  001C                     	;# 
   324  001D                     	;# 
   325  001E                     	;# 
   326  001F                     	;# 
   327  0081                     	;# 
   328  0085                     	;# 
   329  0086                     	;# 
   330  0087                     	;# 
   331  0088                     	;# 
   332  0089                     	;# 
   333  008C                     	;# 
   334  008D                     	;# 
   335  008E                     	;# 
   336  008F                     	;# 
   337  0090                     	;# 
   338  0091                     	;# 
   339  0092                     	;# 
   340  0093                     	;# 
   341  0093                     	;# 
   342  0093                     	;# 
   343  0094                     	;# 
   344  0095                     	;# 
   345  0096                     	;# 
   346  0097                     	;# 
   347  0098                     	;# 
   348  0099                     	;# 
   349  009A                     	;# 
   350  009B                     	;# 
   351  009C                     	;# 
   352  009D                     	;# 
   353  009E                     	;# 
   354  009F                     	;# 
   355  0105                     	;# 
   356  0107                     	;# 
   357  0108                     	;# 
   358  0109                     	;# 
   359  010C                     	;# 
   360  010C                     	;# 
   361  010D                     	;# 
   362  010E                     	;# 
   363  010F                     	;# 
   364  0185                     	;# 
   365  0187                     	;# 
   366  0188                     	;# 
   367  0189                     	;# 
   368  018C                     	;# 
   369  018D                     	;# 
   370  0013                     _SSPBUF	set	19
   371  0014                     _SSPCON	set	20
   372  001E                     _ADRESH	set	30
   373  001F                     _ADCON0bits	set	31
   374  000C                     _PIR1bits	set	12
   375  0008                     _PORTD	set	8
   376  0006                     _PORTB	set	6
   377  000B                     _INTCONbits	set	11
   378  0094                     _SSPSTATbits	set	148
   379  0094                     _SSPSTAT	set	148
   380  009E                     _ADRESL	set	158
   381  009F                     _ADCON1bits	set	159
   382  008C                     _PIE1bits	set	140
   383  0086                     _TRISB	set	134
   384  0088                     _TRISD	set	136
   385  043B                     _TRISC3	set	1083
   386  043D                     _TRISC5	set	1085
   387  0188                     _ANSEL	set	392
   388                           
   389                           	psect	cinit
   390  000F                     start_initialization:	
   391                           ; #config settings
   392                           
   393  000F                     __initialization:
   394                           
   395                           ; Clear objects allocated to COMMON
   396  000F  01F6               	clrf	__pbssCOMMON& (0+127)
   397  0010  01F7               	clrf	(__pbssCOMMON+1)& (0+127)
   398  0011  01F8               	clrf	(__pbssCOMMON+2)& (0+127)
   399  0012  01F9               	clrf	(__pbssCOMMON+3)& (0+127)
   400  0013                     end_of_initialization:	
   401                           ;End of C runtime variable initialization code
   402                           
   403  0013                     __end_of__initialization:
   404  0013  0183               	clrf	3
   405  0014  120A  118A  2C34   	ljmp	_main	;jump to C main() function
   406                           
   407                           	psect	bssCOMMON
   408  0076                     __pbssCOMMON:
   409  0076                     _adcValue:
   410  0076                     	ds	2
   411  0078                     _valor:
   412  0078                     	ds	1
   413  0079                     _temperature:
   414  0079                     	ds	1
   415                           
   416                           	psect	cstackCOMMON
   417  0070                     __pcstackCOMMON:
   418  0070                     ?_initADC:
   419  0070                     ?_spiRead:	
   420                           ; 1 bytes @ 0x0
   421                           
   422  0070                     ??_spiRead:	
   423                           ; 1 bytes @ 0x0
   424                           
   425  0070                     ?_spiWrite:	
   426                           ; 1 bytes @ 0x0
   427                           
   428  0070                     ??_spiWrite:	
   429                           ; 1 bytes @ 0x0
   430                           
   431  0070                     ?_main:	
   432                           ; 1 bytes @ 0x0
   433                           
   434  0070                     ?_isr:	
   435                           ; 1 bytes @ 0x0
   436                           
   437  0070                     ?_spiReceiveWait:	
   438                           ; 1 bytes @ 0x0
   439                           
   440  0070                     ??_spiReceiveWait:	
   441                           ; 1 bytes @ 0x0
   442                           
   443  0070                     spiWrite@dat:	
   444                           ; 1 bytes @ 0x0
   445                           
   446                           
   447                           ; 1 bytes @ 0x0
   448  0070                     	ds	1
   449  0071                     ??_isr:
   450                           
   451                           ; 1 bytes @ 0x1
   452  0071                     	ds	3
   453  0074                     ??_spiInit:
   454  0074                     ??_initADC:	
   455                           ; 1 bytes @ 0x4
   456                           
   457  0074                     ?_readADC:	
   458                           ; 1 bytes @ 0x4
   459                           
   460  0074                     ?__Umul8_16:	
   461                           ; 2 bytes @ 0x4
   462                           
   463  0074                     spiInit@sType:	
   464                           ; 2 bytes @ 0x4
   465                           
   466  0074                     __Umul8_16@multiplicand:	
   467                           ; 1 bytes @ 0x4
   468                           
   469                           
   470                           ; 1 bytes @ 0x4
   471  0074                     	ds	2
   472                           
   473                           	psect	cstackBANK0
   474  0020                     __pcstackBANK0:
   475  0020                     ?_spiInit:
   476  0020                     ??_readADC:	
   477                           ; 1 bytes @ 0x0
   478                           
   479  0020                     ??__Umul8_16:	
   480                           ; 1 bytes @ 0x0
   481                           
   482  0020                     ?___xxtofl:	
   483                           ; 1 bytes @ 0x0
   484                           
   485  0020                     spiInit@sDataSample:	
   486                           ; 4 bytes @ 0x0
   487                           
   488  0020                     ___xxtofl@val:	
   489                           ; 1 bytes @ 0x0
   490                           
   491                           
   492                           ; 4 bytes @ 0x0
   493  0020                     	ds	1
   494  0021                     spiInit@sClockIdle:
   495                           
   496                           ; 1 bytes @ 0x1
   497  0021                     	ds	1
   498  0022                     spiInit@sTransmitEdge:
   499  0022                     __Umul8_16@product:	
   500                           ; 1 bytes @ 0x2
   501                           
   502                           
   503                           ; 2 bytes @ 0x2
   504  0022                     	ds	2
   505  0024                     ??___xxtofl:
   506  0024                     __Umul8_16@word_mpld:	
   507                           ; 1 bytes @ 0x4
   508                           
   509                           
   510                           ; 2 bytes @ 0x4
   511  0024                     	ds	2
   512  0026                     __Umul8_16@multiplier:
   513                           
   514                           ; 1 bytes @ 0x6
   515  0026                     	ds	1
   516  0027                     readADC@pin:
   517                           
   518                           ; 1 bytes @ 0x7
   519  0027                     	ds	1
   520  0028                     ___xxtofl@sign:
   521                           
   522                           ; 1 bytes @ 0x8
   523  0028                     	ds	1
   524  0029                     ___xxtofl@exp:
   525                           
   526                           ; 1 bytes @ 0x9
   527  0029                     	ds	1
   528  002A                     ___xxtofl@arg:
   529                           
   530                           ; 4 bytes @ 0xA
   531  002A                     	ds	4
   532  002E                     ?___flmul:
   533  002E                     ___flmul@b:	
   534                           ; 4 bytes @ 0xE
   535                           
   536                           
   537                           ; 4 bytes @ 0xE
   538  002E                     	ds	4
   539  0032                     ___flmul@a:
   540                           
   541                           ; 4 bytes @ 0x12
   542  0032                     	ds	4
   543  0036                     ??___flmul:
   544                           
   545                           ; 1 bytes @ 0x16
   546  0036                     	ds	5
   547  003B                     ___flmul@sign:
   548                           
   549                           ; 1 bytes @ 0x1B
   550  003B                     	ds	1
   551  003C                     ___flmul@aexp:
   552                           
   553                           ; 1 bytes @ 0x1C
   554  003C                     	ds	1
   555  003D                     ___flmul@grs:
   556                           
   557                           ; 4 bytes @ 0x1D
   558  003D                     	ds	4
   559  0041                     ___flmul@bexp:
   560                           
   561                           ; 1 bytes @ 0x21
   562  0041                     	ds	1
   563  0042                     ___flmul@prod:
   564                           
   565                           ; 4 bytes @ 0x22
   566  0042                     	ds	4
   567  0046                     ___flmul@temp:
   568                           
   569                           ; 2 bytes @ 0x26
   570  0046                     	ds	2
   571  0048                     ?___fltol:
   572  0048                     ___fltol@f1:	
   573                           ; 4 bytes @ 0x28
   574                           
   575                           
   576                           ; 4 bytes @ 0x28
   577  0048                     	ds	4
   578  004C                     ??___fltol:
   579                           
   580                           ; 1 bytes @ 0x2C
   581  004C                     	ds	5
   582  0051                     ___fltol@sign1:
   583                           
   584                           ; 1 bytes @ 0x31
   585  0051                     	ds	1
   586  0052                     ___fltol@exp1:
   587                           
   588                           ; 1 bytes @ 0x32
   589  0052                     	ds	1
   590  0053                     ??_main:
   591                           
   592                           ; 1 bytes @ 0x33
   593  0053                     	ds	1
   594                           
   595                           	psect	maintext
   596  0434                     __pmaintext:	
   597 ;;
   598 ;;Main: autosize = 0, tempsize = 1, incstack = 0, save=0
   599 ;;
   600 ;; *************** function _main *****************
   601 ;; Defined at:
   602 ;;		line 32 in file "main.c"
   603 ;; Parameters:    Size  Location     Type
   604 ;;		None
   605 ;; Auto vars:     Size  Location     Type
   606 ;;		None
   607 ;; Return value:  Size  Location     Type
   608 ;;                  1    wreg      void 
   609 ;; Registers used:
   610 ;;		wreg, status,2, status,0, btemp+1, pclath, cstack
   611 ;; Tracked objects:
   612 ;;		On entry : B00/0
   613 ;;		On exit  : 0/0
   614 ;;		Unchanged: 0/0
   615 ;; Data sizes:     COMMON   BANK0   BANK1   BANK3   BANK2
   616 ;;      Params:         0       0       0       0       0
   617 ;;      Locals:         0       0       0       0       0
   618 ;;      Temps:          0       1       0       0       0
   619 ;;      Totals:         0       1       0       0       0
   620 ;;Total ram usage:        1 bytes
   621 ;; Hardware stack levels required when called:    5
   622 ;; This function calls:
   623 ;;		___flmul
   624 ;;		___fltol
   625 ;;		___xxtofl
   626 ;;		_initADC
   627 ;;		_readADC
   628 ;;		_spiInit
   629 ;; This function is called by:
   630 ;;		Startup code after reset
   631 ;; This function uses a non-reentrant model
   632 ;;
   633                           
   634                           
   635                           ;psect for function _main
   636  0434                     _main:
   637  0434                     l1550:	
   638                           ;incstack = 0
   639                           ; Regs used in _main: [wreg+status,2+status,0+btemp+1+pclath+cstack]
   640                           
   641                           
   642                           ;main.c: 33:     ANSEL = 1;
   643  0434  3001               	movlw	1
   644  0435  1683               	bsf	3,5	;RP0=1, select bank3
   645  0436  1703               	bsf	3,6	;RP1=1, select bank3
   646  0437  0088               	movwf	8	;volatile
   647                           
   648                           ;main.c: 34:     TRISD = 248;
   649  0438  30F8               	movlw	248
   650  0439  1683               	bsf	3,5	;RP0=1, select bank1
   651  043A  1303               	bcf	3,6	;RP1=0, select bank1
   652  043B  0088               	movwf	8	;volatile
   653  043C                     l1552:
   654                           
   655                           ;main.c: 35:     TRISB = 0;
   656  043C  0186               	clrf	6	;volatile
   657  043D                     l1554:
   658                           
   659                           ;main.c: 37:     INTCONbits.GIE = 1;
   660  043D  178B               	bsf	11,7	;volatile
   661  043E                     l1556:
   662                           
   663                           ;main.c: 38:     INTCONbits.PEIE = 1;
   664  043E  170B               	bsf	11,6	;volatile
   665  043F                     l1558:
   666                           
   667                           ;main.c: 39:     PIE1bits.SSPIE = 1;
   668  043F  158C               	bsf	12,3	;volatile
   669  0440                     l1560:
   670                           
   671                           ;main.c: 41:      spiInit(SPI_SLAVE_SS_EN,SPI_DATA_SAMPLE_MIDDLE,
   672  0440  1283               	bcf	3,5	;RP0=0, select bank0
   673  0441  1303               	bcf	3,6	;RP1=0, select bank0
   674  0442  01A0               	clrf	spiInit@sDataSample
   675  0443  01A1               	clrf	spiInit@sClockIdle
   676  0444  01A2               	clrf	spiInit@sTransmitEdge
   677  0445  3024               	movlw	36
   678  0446  120A  118A  25AC  120A  118A  	fcall	_spiInit
   679  044B                     l1562:
   680                           
   681                           ;main.c: 43:     initADC();
   682  044B  120A  118A  25CA  120A  118A  	fcall	_initADC
   683  0450                     l1564:
   684                           
   685                           ;main.c: 49:         adcValue = readADC(0);
   686  0450  3000               	movlw	0
   687  0451  120A  118A  252D  120A  118A  	fcall	_readADC
   688  0456  0875               	movf	?_readADC+1,w
   689  0457  00F7               	movwf	_adcValue+1
   690  0458  0874               	movf	?_readADC,w
   691  0459  00F6               	movwf	_adcValue
   692  045A                     l1566:
   693                           
   694                           ;main.c: 51:         temperature = adcValue*0.4888;
   695  045A  0876               	movf	_adcValue,w
   696  045B  1283               	bcf	3,5	;RP0=0, select bank0
   697  045C  1303               	bcf	3,6	;RP1=0, select bank0
   698  045D  00A0               	movwf	___xxtofl@val
   699  045E  0877               	movf	_adcValue+1,w
   700  045F  00A1               	movwf	___xxtofl@val+1
   701  0460  3000               	movlw	0
   702  0461  1BA1               	btfsc	___xxtofl@val+1,7
   703  0462  30FF               	movlw	255
   704  0463  00A2               	movwf	___xxtofl@val+2
   705  0464  00A3               	movwf	___xxtofl@val+3
   706  0465  3001               	movlw	1
   707  0466  120A  118A  2378  120A  118A  	fcall	___xxtofl
   708  046B  1283               	bcf	3,5	;RP0=0, select bank0
   709  046C  1303               	bcf	3,6	;RP1=0, select bank0
   710  046D  0823               	movf	?___xxtofl+3,w
   711  046E  00B5               	movwf	___flmul@a+3
   712  046F  0822               	movf	?___xxtofl+2,w
   713  0470  00B4               	movwf	___flmul@a+2
   714  0471  0821               	movf	?___xxtofl+1,w
   715  0472  00B3               	movwf	___flmul@a+1
   716  0473  0820               	movf	?___xxtofl,w
   717  0474  00B2               	movwf	___flmul@a
   718  0475  303E               	movlw	62
   719  0476  00B1               	movwf	___flmul@b+3
   720  0477  30FA               	movlw	250
   721  0478  00B0               	movwf	___flmul@b+2
   722  0479  3043               	movlw	67
   723  047A  00AF               	movwf	___flmul@b+1
   724  047B  30FE               	movlw	254
   725  047C  00AE               	movwf	___flmul@b
   726  047D  120A  118A  2017  120A  118A  	fcall	___flmul
   727  0482  1283               	bcf	3,5	;RP0=0, select bank0
   728  0483  1303               	bcf	3,6	;RP1=0, select bank0
   729  0484  0831               	movf	?___flmul+3,w
   730  0485  00CB               	movwf	___fltol@f1+3
   731  0486  0830               	movf	?___flmul+2,w
   732  0487  00CA               	movwf	___fltol@f1+2
   733  0488  082F               	movf	?___flmul+1,w
   734  0489  00C9               	movwf	___fltol@f1+1
   735  048A  082E               	movf	?___flmul,w
   736  048B  00C8               	movwf	___fltol@f1
   737  048C  120A  118A  24B1  120A  118A  	fcall	___fltol
   738  0491  1283               	bcf	3,5	;RP0=0, select bank0
   739  0492  1303               	bcf	3,6	;RP1=0, select bank0
   740  0493  0848               	movf	?___fltol,w
   741  0494  00D3               	movwf	??_main
   742  0495  0853               	movf	??_main,w
   743  0496  00F9               	movwf	_temperature
   744  0497                     l1568:
   745                           
   746                           ;main.c: 52:         PORTB = temperature;
   747  0497  0879               	movf	_temperature,w
   748  0498  0086               	movwf	6	;volatile
   749  0499                     l1570:
   750                           
   751                           ;main.c: 53:         if(temperature < 25) PORTD = 1;
   752  0499  3019               	movlw	25
   753  049A  0279               	subwf	_temperature,w
   754  049B  1803               	skipnc
   755  049C  2C9E               	goto	u2091
   756  049D  2C9F               	goto	u2090
   757  049E                     u2091:
   758  049E  2CA2               	goto	l1574
   759  049F                     u2090:
   760  049F                     l1572:
   761  049F  3001               	movlw	1
   762  04A0  0088               	movwf	8	;volatile
   763  04A1  2C50               	goto	l1564
   764  04A2                     l1574:
   765  04A2  3024               	movlw	36
   766  04A3  0279               	subwf	_temperature,w
   767  04A4  1803               	skipnc
   768  04A5  2CA7               	goto	u2101
   769  04A6  2CA8               	goto	u2100
   770  04A7                     u2101:
   771  04A7  2CAB               	goto	l1578
   772  04A8                     u2100:
   773  04A8                     l1576:
   774  04A8  3002               	movlw	2
   775  04A9  0088               	movwf	8	;volatile
   776  04AA  2C50               	goto	l1564
   777  04AB                     l1578:
   778  04AB  3004               	movlw	4
   779  04AC  0088               	movwf	8	;volatile
   780  04AD  2C50               	goto	l1564
   781  04AE  120A  118A  280C   	ljmp	start
   782  04B1                     __end_of_main:
   783                           
   784                           	psect	text1
   785  05AC                     __ptext1:	
   786 ;; *************** function _spiInit *****************
   787 ;; Defined at:
   788 ;;		line 12 in file "spi.c"
   789 ;; Parameters:    Size  Location     Type
   790 ;;  sType           1    wreg     enum E1264
   791 ;;  sDataSample     1    0[BANK0 ] enum E1272
   792 ;;  sClockIdle      1    1[BANK0 ] enum E1276
   793 ;;  sTransmitEdg    1    2[BANK0 ] enum E1280
   794 ;; Auto vars:     Size  Location     Type
   795 ;;  sType           1    4[COMMON] enum E1264
   796 ;; Return value:  Size  Location     Type
   797 ;;                  1    wreg      void 
   798 ;; Registers used:
   799 ;;		wreg, status,2, status,0
   800 ;; Tracked objects:
   801 ;;		On entry : 0/0
   802 ;;		On exit  : 0/0
   803 ;;		Unchanged: 0/0
   804 ;; Data sizes:     COMMON   BANK0   BANK1   BANK3   BANK2
   805 ;;      Params:         0       3       0       0       0
   806 ;;      Locals:         1       0       0       0       0
   807 ;;      Temps:          0       0       0       0       0
   808 ;;      Totals:         1       3       0       0       0
   809 ;;Total ram usage:        4 bytes
   810 ;; Hardware stack levels used:    1
   811 ;; Hardware stack levels required when called:    3
   812 ;; This function calls:
   813 ;;		Nothing
   814 ;; This function is called by:
   815 ;;		_main
   816 ;; This function uses a non-reentrant model
   817 ;;
   818                           
   819                           
   820                           ;psect for function _spiInit
   821  05AC                     _spiInit:
   822                           
   823                           ;incstack = 0
   824                           ; Regs used in _spiInit: [wreg+status,2+status,0]
   825                           ;spiInit@sType stored from wreg
   826  05AC  00F4               	movwf	spiInit@sType
   827  05AD                     l1312:
   828                           
   829                           ;spi.c: 12: void spiInit(Spi_Type sType, Spi_Data_Sample sDataSample, Spi_Clock_Idle sCl
      +                          ockIdle, Spi_Transmit_Edge sTransmitEdge);spi.c: 13: {;spi.c: 14:     TRISC5 = 0;
   830  05AD  1683               	bsf	3,5	;RP0=1, select bank1
   831  05AE  1303               	bcf	3,6	;RP1=0, select bank1
   832  05AF  1287               	bcf	7,5	;volatile
   833                           
   834                           ;spi.c: 15:     if(sType & 0b00000100)
   835  05B0  1D74               	btfss	spiInit@sType,2
   836  05B1  2DB3               	goto	u1451
   837  05B2  2DB4               	goto	u1450
   838  05B3                     u1451:
   839  05B3  2DBC               	goto	l1318
   840  05B4                     u1450:
   841  05B4                     l1314:
   842                           
   843                           ;spi.c: 16:     {;spi.c: 17:         SSPSTAT = sTransmitEdge;
   844  05B4  1283               	bcf	3,5	;RP0=0, select bank0
   845  05B5  1303               	bcf	3,6	;RP1=0, select bank0
   846  05B6  0822               	movf	spiInit@sTransmitEdge,w
   847  05B7  1683               	bsf	3,5	;RP0=1, select bank1
   848  05B8  1303               	bcf	3,6	;RP1=0, select bank1
   849  05B9  0094               	movwf	20	;volatile
   850  05BA                     l1316:
   851                           
   852                           ;spi.c: 18:         TRISC3 = 1;
   853  05BA  1587               	bsf	7,3	;volatile
   854                           
   855                           ;spi.c: 19:     }
   856  05BB  2DC4               	goto	l84
   857  05BC                     l1318:
   858                           
   859                           ;spi.c: 21:     {;spi.c: 22:         SSPSTAT = sDataSample | sTransmitEdge;
   860  05BC  1283               	bcf	3,5	;RP0=0, select bank0
   861  05BD  1303               	bcf	3,6	;RP1=0, select bank0
   862  05BE  0820               	movf	spiInit@sDataSample,w
   863  05BF  0422               	iorwf	spiInit@sTransmitEdge,w
   864  05C0  1683               	bsf	3,5	;RP0=1, select bank1
   865  05C1  1303               	bcf	3,6	;RP1=0, select bank1
   866  05C2  0094               	movwf	20	;volatile
   867  05C3                     l1320:
   868                           
   869                           ;spi.c: 23:         TRISC3 = 0;
   870  05C3  1187               	bcf	7,3	;volatile
   871  05C4                     l84:	
   872                           ;spi.c: 24:     }
   873                           
   874                           
   875                           ;spi.c: 26:     SSPCON = sType | sClockIdle;
   876  05C4  0874               	movf	spiInit@sType,w
   877  05C5  1283               	bcf	3,5	;RP0=0, select bank0
   878  05C6  1303               	bcf	3,6	;RP1=0, select bank0
   879  05C7  0421               	iorwf	spiInit@sClockIdle,w
   880  05C8  0094               	movwf	20	;volatile
   881  05C9                     l85:
   882  05C9  0008               	return
   883  05CA                     __end_of_spiInit:
   884                           
   885                           	psect	text2
   886  052D                     __ptext2:	
   887 ;; *************** function _readADC *****************
   888 ;; Defined at:
   889 ;;		line 39 in file "ADC.c"
   890 ;; Parameters:    Size  Location     Type
   891 ;;  pin             1    wreg     unsigned char 
   892 ;; Auto vars:     Size  Location     Type
   893 ;;  pin             1    7[BANK0 ] unsigned char 
   894 ;; Return value:  Size  Location     Type
   895 ;;                  2    4[COMMON] int 
   896 ;; Registers used:
   897 ;;		wreg, status,2, status,0
   898 ;; Tracked objects:
   899 ;;		On entry : 0/0
   900 ;;		On exit  : 0/0
   901 ;;		Unchanged: 0/0
   902 ;; Data sizes:     COMMON   BANK0   BANK1   BANK3   BANK2
   903 ;;      Params:         2       0       0       0       0
   904 ;;      Locals:         0       1       0       0       0
   905 ;;      Temps:          0       7       0       0       0
   906 ;;      Totals:         2       8       0       0       0
   907 ;;Total ram usage:       10 bytes
   908 ;; Hardware stack levels used:    1
   909 ;; Hardware stack levels required when called:    3
   910 ;; This function calls:
   911 ;;		Nothing
   912 ;; This function is called by:
   913 ;;		_main
   914 ;; This function uses a non-reentrant model
   915 ;;
   916                           
   917                           
   918                           ;psect for function _readADC
   919  052D                     _readADC:
   920                           
   921                           ;incstack = 0
   922                           ; Regs used in _readADC: [wreg+status,2+status,0]
   923                           ;readADC@pin stored from wreg
   924  052D  1283               	bcf	3,5	;RP0=0, select bank0
   925  052E  1303               	bcf	3,6	;RP1=0, select bank0
   926  052F  00A7               	movwf	readADC@pin
   927  0530                     l1322:
   928                           
   929                           ;ADC.c: 40:     ADCON0bits.CHS = pin;
   930  0530  0827               	movf	readADC@pin,w
   931  0531  00A0               	movwf	??_readADC
   932  0532  0DA0               	rlf	??_readADC,f
   933  0533  0DA0               	rlf	??_readADC,f
   934  0534  081F               	movf	31,w	;volatile
   935  0535  0620               	xorwf	??_readADC,w
   936  0536  39C3               	andlw	-61
   937  0537  0620               	xorwf	??_readADC,w
   938  0538  009F               	movwf	31	;volatile
   939  0539                     l1324:
   940                           
   941                           ;ADC.c: 41:     ADCON0bits.GO = 1;
   942  0539  149F               	bsf	31,1	;volatile
   943  053A                     l65:	
   944                           ;ADC.c: 42:     while(ADCON0bits.GO);
   945                           
   946  053A  189F               	btfsc	31,1	;volatile
   947  053B  2D3D               	goto	u1461
   948  053C  2D3E               	goto	u1460
   949  053D                     u1461:
   950  053D  2D3A               	goto	l65
   951  053E                     u1460:
   952  053E                     l1326:
   953                           
   954                           ;ADC.c: 43:     return (ADRESH<<2) | (ADRESL>>6);
   955  053E  1683               	bsf	3,5	;RP0=1, select bank1
   956  053F  1303               	bcf	3,6	;RP1=0, select bank1
   957  0540  081E               	movf	30,w	;volatile
   958  0541  1283               	bcf	3,5	;RP0=0, select bank0
   959  0542  1303               	bcf	3,6	;RP1=0, select bank0
   960  0543  00A0               	movwf	??_readADC
   961  0544  3006               	movlw	6
   962  0545                     u1475:
   963  0545  1003               	clrc
   964  0546  0CA0               	rrf	??_readADC,f
   965  0547  3EFF               	addlw	-1
   966  0548  1D03               	skipz
   967  0549  2D45               	goto	u1475
   968  054A  0820               	movf	??_readADC,w
   969  054B  00A1               	movwf	??_readADC+1
   970  054C  01A2               	clrf	??_readADC+2
   971  054D  081E               	movf	30,w	;volatile
   972  054E  00A3               	movwf	??_readADC+3
   973  054F  01A4               	clrf	??_readADC+4
   974  0550  1003               	clrc
   975  0551  0DA3               	rlf	??_readADC+3,f
   976  0552  0DA4               	rlf	??_readADC+4,f
   977  0553  1003               	clrc
   978  0554  0DA3               	rlf	??_readADC+3,f
   979  0555  0DA4               	rlf	??_readADC+4,f
   980  0556  0821               	movf	??_readADC+1,w
   981  0557  0423               	iorwf	??_readADC+3,w
   982  0558  00A5               	movwf	??_readADC+5
   983  0559  0822               	movf	??_readADC+2,w
   984  055A  0424               	iorwf	??_readADC+4,w
   985  055B  00A6               	movwf	??_readADC+6
   986  055C  0825               	movf	??_readADC+5,w
   987  055D  00F4               	movwf	?_readADC
   988  055E  0826               	movf	??_readADC+6,w
   989  055F  00F5               	movwf	?_readADC+1
   990  0560                     l68:
   991  0560  0008               	return
   992  0561                     __end_of_readADC:
   993                           
   994                           	psect	text3
   995  05CA                     __ptext3:	
   996 ;; *************** function _initADC *****************
   997 ;; Defined at:
   998 ;;		line 11 in file "ADC.c"
   999 ;; Parameters:    Size  Location     Type
  1000 ;;		None
  1001 ;; Auto vars:     Size  Location     Type
  1002 ;;		None
  1003 ;; Return value:  Size  Location     Type
  1004 ;;                  1    wreg      void 
  1005 ;; Registers used:
  1006 ;;		wreg, status,2, status,0
  1007 ;; Tracked objects:
  1008 ;;		On entry : 0/0
  1009 ;;		On exit  : 0/0
  1010 ;;		Unchanged: 0/0
  1011 ;; Data sizes:     COMMON   BANK0   BANK1   BANK3   BANK2
  1012 ;;      Params:         0       0       0       0       0
  1013 ;;      Locals:         0       0       0       0       0
  1014 ;;      Temps:          0       0       0       0       0
  1015 ;;      Totals:         0       0       0       0       0
  1016 ;;Total ram usage:        0 bytes
  1017 ;; Hardware stack levels used:    1
  1018 ;; Hardware stack levels required when called:    3
  1019 ;; This function calls:
  1020 ;;		Nothing
  1021 ;; This function is called by:
  1022 ;;		_main
  1023 ;; This function uses a non-reentrant model
  1024 ;;
  1025                           
  1026                           
  1027                           ;psect for function _initADC
  1028  05CA                     _initADC:
  1029  05CA                     l720:	
  1030                           ;incstack = 0
  1031                           ; Regs used in _initADC: [wreg+status,2+status,0]
  1032                           
  1033                           
  1034                           ;ADC.c: 18:     ADCON0bits.ADCS = 1;
  1035  05CA  1283               	bcf	3,5	;RP0=0, select bank0
  1036  05CB  1303               	bcf	3,6	;RP1=0, select bank0
  1037  05CC  081F               	movf	31,w	;volatile
  1038  05CD  393F               	andlw	-193
  1039  05CE  3840               	iorlw	64
  1040  05CF  009F               	movwf	31	;volatile
  1041  05D0                     l722:
  1042                           
  1043                           ;ADC.c: 24:     ADCON1bits.ADFM = 0;
  1044  05D0  1683               	bsf	3,5	;RP0=1, select bank1
  1045  05D1  1303               	bcf	3,6	;RP1=0, select bank1
  1046  05D2  139F               	bcf	31,7	;volatile
  1047  05D3                     l724:
  1048                           
  1049                           ;ADC.c: 25:     ADCON1bits.VCFG1 = 0;
  1050  05D3  129F               	bcf	31,5	;volatile
  1051  05D4                     l726:
  1052                           
  1053                           ;ADC.c: 26:     ADCON1bits.VCFG0 = 0;
  1054  05D4  121F               	bcf	31,4	;volatile
  1055  05D5                     l728:
  1056                           
  1057                           ;ADC.c: 27:     ADCON0bits.ADON = 1;
  1058  05D5  1283               	bcf	3,5	;RP0=0, select bank0
  1059  05D6  1303               	bcf	3,6	;RP1=0, select bank0
  1060  05D7  141F               	bsf	31,0	;volatile
  1061  05D8                     l62:
  1062  05D8  0008               	return
  1063  05D9                     __end_of_initADC:
  1064                           
  1065                           	psect	text4
  1066  0378                     __ptext4:	
  1067 ;; *************** function ___xxtofl *****************
  1068 ;; Defined at:
  1069 ;;		line 10 in file "C:\Program Files\Microchip\xc8\v2.31\pic\sources\c90\common\xxtofl.c"
  1070 ;; Parameters:    Size  Location     Type
  1071 ;;  sign            1    wreg     unsigned char 
  1072 ;;  val             4    0[BANK0 ] long 
  1073 ;; Auto vars:     Size  Location     Type
  1074 ;;  sign            1    8[BANK0 ] unsigned char 
  1075 ;;  arg             4   10[BANK0 ] unsigned long 
  1076 ;;  exp             1    9[BANK0 ] unsigned char 
  1077 ;; Return value:  Size  Location     Type
  1078 ;;                  4    0[BANK0 ] unsigned char 
  1079 ;; Registers used:
  1080 ;;		wreg, status,2, status,0
  1081 ;; Tracked objects:
  1082 ;;		On entry : 0/0
  1083 ;;		On exit  : 0/0
  1084 ;;		Unchanged: 0/0
  1085 ;; Data sizes:     COMMON   BANK0   BANK1   BANK3   BANK2
  1086 ;;      Params:         0       4       0       0       0
  1087 ;;      Locals:         0       6       0       0       0
  1088 ;;      Temps:          0       4       0       0       0
  1089 ;;      Totals:         0      14       0       0       0
  1090 ;;Total ram usage:       14 bytes
  1091 ;; Hardware stack levels used:    1
  1092 ;; Hardware stack levels required when called:    3
  1093 ;; This function calls:
  1094 ;;		Nothing
  1095 ;; This function is called by:
  1096 ;;		_main
  1097 ;; This function uses a non-reentrant model
  1098 ;;
  1099                           
  1100                           
  1101                           ;psect for function ___xxtofl
  1102  0378                     ___xxtofl:
  1103                           
  1104                           ;incstack = 0
  1105                           ; Regs used in ___xxtofl: [wreg+status,2+status,0]
  1106                           ;___xxtofl@sign stored from wreg
  1107  0378  1283               	bcf	3,5	;RP0=0, select bank0
  1108  0379  1303               	bcf	3,6	;RP1=0, select bank0
  1109  037A  00A8               	movwf	___xxtofl@sign
  1110  037B                     l1506:
  1111  037B  0828               	movf	___xxtofl@sign,w
  1112  037C  1903               	btfsc	3,2
  1113  037D  2B7F               	goto	u1951
  1114  037E  2B80               	goto	u1950
  1115  037F                     u1951:
  1116  037F  2B94               	goto	l1512
  1117  0380                     u1950:
  1118  0380                     l1508:
  1119  0380  1FA3               	btfss	___xxtofl@val+3,7
  1120  0381  2B83               	goto	u1961
  1121  0382  2B84               	goto	u1960
  1122  0383                     u1961:
  1123  0383  2B94               	goto	l1512
  1124  0384                     u1960:
  1125  0384                     l1510:
  1126  0384  0920               	comf	___xxtofl@val,w
  1127  0385  00AA               	movwf	___xxtofl@arg
  1128  0386  0921               	comf	___xxtofl@val+1,w
  1129  0387  00AB               	movwf	___xxtofl@arg+1
  1130  0388  0922               	comf	___xxtofl@val+2,w
  1131  0389  00AC               	movwf	___xxtofl@arg+2
  1132  038A  0923               	comf	___xxtofl@val+3,w
  1133  038B  00AD               	movwf	___xxtofl@arg+3
  1134  038C  0AAA               	incf	___xxtofl@arg,f
  1135  038D  1903               	skipnz
  1136  038E  0AAB               	incf	___xxtofl@arg+1,f
  1137  038F  1903               	skipnz
  1138  0390  0AAC               	incf	___xxtofl@arg+2,f
  1139  0391  1903               	skipnz
  1140  0392  0AAD               	incf	___xxtofl@arg+3,f
  1141  0393  2B9C               	goto	l621
  1142  0394                     l1512:
  1143  0394  0823               	movf	___xxtofl@val+3,w
  1144  0395  00AD               	movwf	___xxtofl@arg+3
  1145  0396  0822               	movf	___xxtofl@val+2,w
  1146  0397  00AC               	movwf	___xxtofl@arg+2
  1147  0398  0821               	movf	___xxtofl@val+1,w
  1148  0399  00AB               	movwf	___xxtofl@arg+1
  1149  039A  0820               	movf	___xxtofl@val,w
  1150  039B  00AA               	movwf	___xxtofl@arg
  1151  039C                     l621:
  1152  039C  0823               	movf	___xxtofl@val+3,w
  1153  039D  0422               	iorwf	___xxtofl@val+2,w
  1154  039E  0421               	iorwf	___xxtofl@val+1,w
  1155  039F  0420               	iorwf	___xxtofl@val,w
  1156  03A0  1D03               	skipz
  1157  03A1  2BA3               	goto	u1971
  1158  03A2  2BA4               	goto	u1970
  1159  03A3                     u1971:
  1160  03A3  2BAD               	goto	l1518
  1161  03A4                     u1970:
  1162  03A4                     l1514:
  1163  03A4  3000               	movlw	0
  1164  03A5  00A3               	movwf	?___xxtofl+3
  1165  03A6  3000               	movlw	0
  1166  03A7  00A2               	movwf	?___xxtofl+2
  1167  03A8  3000               	movlw	0
  1168  03A9  00A1               	movwf	?___xxtofl+1
  1169  03AA  3000               	movlw	0
  1170  03AB  00A0               	movwf	?___xxtofl
  1171  03AC  2C33               	goto	l623
  1172  03AD                     l1518:
  1173  03AD  3096               	movlw	150
  1174  03AE  00A4               	movwf	??___xxtofl
  1175  03AF  0824               	movf	??___xxtofl,w
  1176  03B0  00A9               	movwf	___xxtofl@exp
  1177  03B1  2BBF               	goto	l1522
  1178  03B2                     l1520:
  1179  03B2  3001               	movlw	1
  1180  03B3  00A4               	movwf	??___xxtofl
  1181  03B4  0824               	movf	??___xxtofl,w
  1182  03B5  07A9               	addwf	___xxtofl@exp,f
  1183  03B6  3001               	movlw	1
  1184  03B7                     u1985:
  1185  03B7  1003               	clrc
  1186  03B8  0CAD               	rrf	___xxtofl@arg+3,f
  1187  03B9  0CAC               	rrf	___xxtofl@arg+2,f
  1188  03BA  0CAB               	rrf	___xxtofl@arg+1,f
  1189  03BB  0CAA               	rrf	___xxtofl@arg,f
  1190  03BC  3EFF               	addlw	-1
  1191  03BD  1D03               	skipz
  1192  03BE  2BB7               	goto	u1985
  1193  03BF                     l1522:
  1194  03BF  30FE               	movlw	254
  1195  03C0  052D               	andwf	___xxtofl@arg+3,w
  1196  03C1  1D03               	btfss	3,2
  1197  03C2  2BC4               	goto	u1991
  1198  03C3  2BC5               	goto	u1990
  1199  03C4                     u1991:
  1200  03C4  2BB2               	goto	l1520
  1201  03C5                     u1990:
  1202  03C5  2BE1               	goto	l627
  1203  03C6                     l1524:
  1204  03C6  3001               	movlw	1
  1205  03C7  00A4               	movwf	??___xxtofl
  1206  03C8  0824               	movf	??___xxtofl,w
  1207  03C9  07A9               	addwf	___xxtofl@exp,f
  1208  03CA                     l1526:
  1209  03CA  3001               	movlw	1
  1210  03CB  07AA               	addwf	___xxtofl@arg,f
  1211  03CC  3000               	movlw	0
  1212  03CD  1803               	skipnc
  1213  03CE  3001               	movlw	1
  1214  03CF  07AB               	addwf	___xxtofl@arg+1,f
  1215  03D0  3000               	movlw	0
  1216  03D1  1803               	skipnc
  1217  03D2  3001               	movlw	1
  1218  03D3  07AC               	addwf	___xxtofl@arg+2,f
  1219  03D4  3000               	movlw	0
  1220  03D5  1803               	skipnc
  1221  03D6  3001               	movlw	1
  1222  03D7  07AD               	addwf	___xxtofl@arg+3,f
  1223  03D8                     l1528:
  1224  03D8  3001               	movlw	1
  1225  03D9                     u2005:
  1226  03D9  1003               	clrc
  1227  03DA  0CAD               	rrf	___xxtofl@arg+3,f
  1228  03DB  0CAC               	rrf	___xxtofl@arg+2,f
  1229  03DC  0CAB               	rrf	___xxtofl@arg+1,f
  1230  03DD  0CAA               	rrf	___xxtofl@arg,f
  1231  03DE  3EFF               	addlw	-1
  1232  03DF  1D03               	skipz
  1233  03E0  2BD9               	goto	u2005
  1234  03E1                     l627:
  1235  03E1  30FF               	movlw	255
  1236  03E2  052D               	andwf	___xxtofl@arg+3,w
  1237  03E3  1D03               	btfss	3,2
  1238  03E4  2BE6               	goto	u2011
  1239  03E5  2BE7               	goto	u2010
  1240  03E6                     u2011:
  1241  03E6  2BC6               	goto	l1524
  1242  03E7                     u2010:
  1243  03E7  2BF3               	goto	l1532
  1244  03E8                     l1530:
  1245  03E8  3001               	movlw	1
  1246  03E9  02A9               	subwf	___xxtofl@exp,f
  1247  03EA  3001               	movlw	1
  1248  03EB  00A4               	movwf	??___xxtofl
  1249  03EC                     u2025:
  1250  03EC  1003               	clrc
  1251  03ED  0DAA               	rlf	___xxtofl@arg,f
  1252  03EE  0DAB               	rlf	___xxtofl@arg+1,f
  1253  03EF  0DAC               	rlf	___xxtofl@arg+2,f
  1254  03F0  0DAD               	rlf	___xxtofl@arg+3,f
  1255  03F1  0BA4               	decfsz	??___xxtofl,f
  1256  03F2  2BEC               	goto	u2025
  1257  03F3                     l1532:
  1258  03F3  1BAC               	btfsc	___xxtofl@arg+2,7
  1259  03F4  2BF6               	goto	u2031
  1260  03F5  2BF7               	goto	u2030
  1261  03F6                     u2031:
  1262  03F6  2BFD               	goto	l634
  1263  03F7                     u2030:
  1264  03F7                     l1534:
  1265  03F7  3002               	movlw	2
  1266  03F8  0229               	subwf	___xxtofl@exp,w
  1267  03F9  1803               	skipnc
  1268  03FA  2BFC               	goto	u2041
  1269  03FB  2BFD               	goto	u2040
  1270  03FC                     u2041:
  1271  03FC  2BE8               	goto	l1530
  1272  03FD                     u2040:
  1273  03FD                     l634:
  1274  03FD  1829               	btfsc	___xxtofl@exp,0
  1275  03FE  2C00               	goto	u2051
  1276  03FF  2C01               	goto	u2050
  1277  0400                     u2051:
  1278  0400  2C09               	goto	l635
  1279  0401                     u2050:
  1280  0401                     l1536:
  1281  0401  30FF               	movlw	255
  1282  0402  05AA               	andwf	___xxtofl@arg,f
  1283  0403  30FF               	movlw	255
  1284  0404  05AB               	andwf	___xxtofl@arg+1,f
  1285  0405  307F               	movlw	127
  1286  0406  05AC               	andwf	___xxtofl@arg+2,f
  1287  0407  30FF               	movlw	255
  1288  0408  05AD               	andwf	___xxtofl@arg+3,f
  1289  0409                     l635:
  1290  0409  1003               	clrc
  1291  040A  0CA9               	rrf	___xxtofl@exp,f
  1292  040B                     l1538:
  1293  040B  0829               	movf	___xxtofl@exp,w
  1294  040C  00A4               	movwf	??___xxtofl
  1295  040D  01A5               	clrf	??___xxtofl+1
  1296  040E  01A6               	clrf	??___xxtofl+2
  1297  040F  01A7               	clrf	??___xxtofl+3
  1298  0410  3018               	movlw	24
  1299  0411                     u2065:
  1300  0411  1003               	clrc
  1301  0412  0DA4               	rlf	??___xxtofl,f
  1302  0413  0DA5               	rlf	??___xxtofl+1,f
  1303  0414  0DA6               	rlf	??___xxtofl+2,f
  1304  0415  0DA7               	rlf	??___xxtofl+3,f
  1305  0416                     u2060:
  1306  0416  3EFF               	addlw	-1
  1307  0417  1D03               	skipz
  1308  0418  2C11               	goto	u2065
  1309  0419  0824               	movf	??___xxtofl,w
  1310  041A  04AA               	iorwf	___xxtofl@arg,f
  1311  041B  0825               	movf	??___xxtofl+1,w
  1312  041C  04AB               	iorwf	___xxtofl@arg+1,f
  1313  041D  0826               	movf	??___xxtofl+2,w
  1314  041E  04AC               	iorwf	___xxtofl@arg+2,f
  1315  041F  0827               	movf	??___xxtofl+3,w
  1316  0420  04AD               	iorwf	___xxtofl@arg+3,f
  1317  0421                     l1540:
  1318  0421  0828               	movf	___xxtofl@sign,w
  1319  0422  1903               	btfsc	3,2
  1320  0423  2C25               	goto	u2071
  1321  0424  2C26               	goto	u2070
  1322  0425                     u2071:
  1323  0425  2C2B               	goto	l1546
  1324  0426                     u2070:
  1325  0426                     l1542:
  1326  0426  1FA3               	btfss	___xxtofl@val+3,7
  1327  0427  2C29               	goto	u2081
  1328  0428  2C2A               	goto	u2080
  1329  0429                     u2081:
  1330  0429  2C2B               	goto	l1546
  1331  042A                     u2080:
  1332  042A                     l1544:
  1333  042A  17AD               	bsf	___xxtofl@arg+3,7
  1334  042B                     l1546:
  1335  042B  082D               	movf	___xxtofl@arg+3,w
  1336  042C  00A3               	movwf	?___xxtofl+3
  1337  042D  082C               	movf	___xxtofl@arg+2,w
  1338  042E  00A2               	movwf	?___xxtofl+2
  1339  042F  082B               	movf	___xxtofl@arg+1,w
  1340  0430  00A1               	movwf	?___xxtofl+1
  1341  0431  082A               	movf	___xxtofl@arg,w
  1342  0432  00A0               	movwf	?___xxtofl
  1343  0433                     l623:
  1344  0433  0008               	return
  1345  0434                     __end_of___xxtofl:
  1346                           
  1347                           	psect	text5
  1348  04B1                     __ptext5:	
  1349 ;; *************** function ___fltol *****************
  1350 ;; Defined at:
  1351 ;;		line 43 in file "C:\Program Files\Microchip\xc8\v2.31\pic\sources\c90\common\fltol.c"
  1352 ;; Parameters:    Size  Location     Type
  1353 ;;  f1              4   40[BANK0 ] unsigned char 
  1354 ;; Auto vars:     Size  Location     Type
  1355 ;;  exp1            1   50[BANK0 ] unsigned char 
  1356 ;;  sign1           1   49[BANK0 ] unsigned char 
  1357 ;; Return value:  Size  Location     Type
  1358 ;;                  4   40[BANK0 ] long 
  1359 ;; Registers used:
  1360 ;;		wreg, status,2, status,0
  1361 ;; Tracked objects:
  1362 ;;		On entry : 0/0
  1363 ;;		On exit  : 0/0
  1364 ;;		Unchanged: 0/0
  1365 ;; Data sizes:     COMMON   BANK0   BANK1   BANK3   BANK2
  1366 ;;      Params:         0       4       0       0       0
  1367 ;;      Locals:         0       2       0       0       0
  1368 ;;      Temps:          0       5       0       0       0
  1369 ;;      Totals:         0      11       0       0       0
  1370 ;;Total ram usage:       11 bytes
  1371 ;; Hardware stack levels used:    1
  1372 ;; Hardware stack levels required when called:    3
  1373 ;; This function calls:
  1374 ;;		Nothing
  1375 ;; This function is called by:
  1376 ;;		_main
  1377 ;; This function uses a non-reentrant model
  1378 ;;
  1379                           
  1380                           
  1381                           ;psect for function ___fltol
  1382  04B1                     ___fltol:
  1383  04B1                     l1330:	
  1384                           ;incstack = 0
  1385                           ; Regs used in ___fltol: [wreg+status,2+status,0]
  1386                           
  1387  04B1  1003               	clrc
  1388  04B2  1283               	bcf	3,5	;RP0=0, select bank0
  1389  04B3  1303               	bcf	3,6	;RP1=0, select bank0
  1390  04B4  0D4A               	rlf	___fltol@f1+2,w
  1391  04B5  0D4B               	rlf	___fltol@f1+3,w
  1392  04B6  00CC               	movwf	??___fltol
  1393  04B7  084C               	movf	??___fltol,w
  1394  04B8  00D2               	movwf	___fltol@exp1
  1395  04B9  0852               	movf	___fltol@exp1,w
  1396  04BA  1D03               	btfss	3,2
  1397  04BB  2CBD               	goto	u1481
  1398  04BC  2CBE               	goto	u1480
  1399  04BD                     u1481:
  1400  04BD  2CC7               	goto	l1336
  1401  04BE                     u1480:
  1402  04BE                     l1332:
  1403  04BE  3000               	movlw	0
  1404  04BF  00CB               	movwf	?___fltol+3
  1405  04C0  3000               	movlw	0
  1406  04C1  00CA               	movwf	?___fltol+2
  1407  04C2  3000               	movlw	0
  1408  04C3  00C9               	movwf	?___fltol+1
  1409  04C4  3000               	movlw	0
  1410  04C5  00C8               	movwf	?___fltol
  1411  04C6  2D2C               	goto	l374
  1412  04C7                     l1336:
  1413  04C7  0848               	movf	___fltol@f1,w
  1414  04C8  00CC               	movwf	??___fltol
  1415  04C9  0849               	movf	___fltol@f1+1,w
  1416  04CA  00CD               	movwf	??___fltol+1
  1417  04CB  084A               	movf	___fltol@f1+2,w
  1418  04CC  00CE               	movwf	??___fltol+2
  1419  04CD  084B               	movf	___fltol@f1+3,w
  1420  04CE  00CF               	movwf	??___fltol+3
  1421  04CF  301F               	movlw	31
  1422  04D0                     u1495:
  1423  04D0  1003               	clrc
  1424  04D1  0CCF               	rrf	??___fltol+3,f
  1425  04D2  0CCE               	rrf	??___fltol+2,f
  1426  04D3  0CCD               	rrf	??___fltol+1,f
  1427  04D4  0CCC               	rrf	??___fltol,f
  1428  04D5                     u1490:
  1429  04D5  3EFF               	addlw	-1
  1430  04D6  1D03               	skipz
  1431  04D7  2CD0               	goto	u1495
  1432  04D8  084C               	movf	??___fltol,w
  1433  04D9  00D0               	movwf	??___fltol+4
  1434  04DA  0850               	movf	??___fltol+4,w
  1435  04DB  00D1               	movwf	___fltol@sign1
  1436  04DC                     l1338:
  1437  04DC  17CA               	bsf	___fltol@f1+2,7
  1438  04DD                     l1340:
  1439  04DD  30FF               	movlw	255
  1440  04DE  05C8               	andwf	___fltol@f1,f
  1441  04DF  30FF               	movlw	255
  1442  04E0  05C9               	andwf	___fltol@f1+1,f
  1443  04E1  30FF               	movlw	255
  1444  04E2  05CA               	andwf	___fltol@f1+2,f
  1445  04E3  3000               	movlw	0
  1446  04E4  05CB               	andwf	___fltol@f1+3,f
  1447  04E5                     l1342:
  1448  04E5  3096               	movlw	150
  1449  04E6  02D2               	subwf	___fltol@exp1,f
  1450  04E7                     l1344:
  1451  04E7  1FD2               	btfss	___fltol@exp1,7
  1452  04E8  2CEA               	goto	u1501
  1453  04E9  2CEB               	goto	u1500
  1454  04EA                     u1501:
  1455  04EA  2D05               	goto	l1354
  1456  04EB                     u1500:
  1457  04EB                     l1346:
  1458  04EB  0852               	movf	___fltol@exp1,w
  1459  04EC  3A80               	xorlw	128
  1460  04ED  3E97               	addlw	151
  1461  04EE  1803               	skipnc
  1462  04EF  2CF1               	goto	u1511
  1463  04F0  2CF2               	goto	u1510
  1464  04F1                     u1511:
  1465  04F1  2CF3               	goto	l1352
  1466  04F2                     u1510:
  1467  04F2  2CBE               	goto	l1332
  1468  04F3                     l1352:
  1469  04F3  3001               	movlw	1
  1470  04F4                     u1525:
  1471  04F4  1003               	clrc
  1472  04F5  0CCB               	rrf	___fltol@f1+3,f
  1473  04F6  0CCA               	rrf	___fltol@f1+2,f
  1474  04F7  0CC9               	rrf	___fltol@f1+1,f
  1475  04F8  0CC8               	rrf	___fltol@f1,f
  1476  04F9  3EFF               	addlw	-1
  1477  04FA  1D03               	skipz
  1478  04FB  2CF4               	goto	u1525
  1479  04FC  3001               	movlw	1
  1480  04FD  00CC               	movwf	??___fltol
  1481  04FE  084C               	movf	??___fltol,w
  1482  04FF  07D2               	addwf	___fltol@exp1,f
  1483  0500  1D03               	btfss	3,2
  1484  0501  2D03               	goto	u1531
  1485  0502  2D04               	goto	u1530
  1486  0503                     u1531:
  1487  0503  2CF3               	goto	l1352
  1488  0504                     u1530:
  1489  0504  2D1C               	goto	l1362
  1490  0505                     l1354:
  1491  0505  3020               	movlw	32
  1492  0506  0252               	subwf	___fltol@exp1,w
  1493  0507  1C03               	skipc
  1494  0508  2D0A               	goto	u1541
  1495  0509  2D0B               	goto	u1540
  1496  050A                     u1541:
  1497  050A  2D17               	goto	l381
  1498  050B                     u1540:
  1499  050B  2CBE               	goto	l1332
  1500  050C                     l1360:
  1501  050C  3001               	movlw	1
  1502  050D  00CC               	movwf	??___fltol
  1503  050E                     u1555:
  1504  050E  1003               	clrc
  1505  050F  0DC8               	rlf	___fltol@f1,f
  1506  0510  0DC9               	rlf	___fltol@f1+1,f
  1507  0511  0DCA               	rlf	___fltol@f1+2,f
  1508  0512  0DCB               	rlf	___fltol@f1+3,f
  1509  0513  0BCC               	decfsz	??___fltol,f
  1510  0514  2D0E               	goto	u1555
  1511  0515  3001               	movlw	1
  1512  0516  02D2               	subwf	___fltol@exp1,f
  1513  0517                     l381:
  1514  0517  0852               	movf	___fltol@exp1,w
  1515  0518  1D03               	btfss	3,2
  1516  0519  2D1B               	goto	u1561
  1517  051A  2D1C               	goto	u1560
  1518  051B                     u1561:
  1519  051B  2D0C               	goto	l1360
  1520  051C                     u1560:
  1521  051C                     l1362:
  1522  051C  0851               	movf	___fltol@sign1,w
  1523  051D  1903               	btfsc	3,2
  1524  051E  2D20               	goto	u1571
  1525  051F  2D21               	goto	u1570
  1526  0520                     u1571:
  1527  0520  2D2C               	goto	l384
  1528  0521                     u1570:
  1529  0521                     l1364:
  1530  0521  09C8               	comf	___fltol@f1,f
  1531  0522  09C9               	comf	___fltol@f1+1,f
  1532  0523  09CA               	comf	___fltol@f1+2,f
  1533  0524  09CB               	comf	___fltol@f1+3,f
  1534  0525  0AC8               	incf	___fltol@f1,f
  1535  0526  1903               	skipnz
  1536  0527  0AC9               	incf	___fltol@f1+1,f
  1537  0528  1903               	skipnz
  1538  0529  0ACA               	incf	___fltol@f1+2,f
  1539  052A  1903               	skipnz
  1540  052B  0ACB               	incf	___fltol@f1+3,f
  1541  052C                     l384:
  1542  052C                     l374:
  1543  052C  0008               	return
  1544  052D                     __end_of___fltol:
  1545                           
  1546                           	psect	text6
  1547  0017                     __ptext6:	
  1548 ;; *************** function ___flmul *****************
  1549 ;; Defined at:
  1550 ;;		line 8 in file "C:\Program Files\Microchip\xc8\v2.31\pic\sources\c90\common\sprcmul.c"
  1551 ;; Parameters:    Size  Location     Type
  1552 ;;  b               4   14[BANK0 ] long 
  1553 ;;  a               4   18[BANK0 ] long 
  1554 ;; Auto vars:     Size  Location     Type
  1555 ;;  prod            4   34[BANK0 ] struct .
  1556 ;;  grs             4   29[BANK0 ] unsigned long 
  1557 ;;  temp            2   38[BANK0 ] struct .
  1558 ;;  bexp            1   33[BANK0 ] unsigned char 
  1559 ;;  aexp            1   28[BANK0 ] unsigned char 
  1560 ;;  sign            1   27[BANK0 ] unsigned char 
  1561 ;; Return value:  Size  Location     Type
  1562 ;;                  4   14[BANK0 ] unsigned char 
  1563 ;; Registers used:
  1564 ;;		wreg, status,2, status,0, btemp+1, pclath, cstack
  1565 ;; Tracked objects:
  1566 ;;		On entry : 0/0
  1567 ;;		On exit  : 0/0
  1568 ;;		Unchanged: 0/0
  1569 ;; Data sizes:     COMMON   BANK0   BANK1   BANK3   BANK2
  1570 ;;      Params:         0       8       0       0       0
  1571 ;;      Locals:         0      13       0       0       0
  1572 ;;      Temps:          0       5       0       0       0
  1573 ;;      Totals:         0      26       0       0       0
  1574 ;;Total ram usage:       26 bytes
  1575 ;; Hardware stack levels used:    1
  1576 ;; Hardware stack levels required when called:    4
  1577 ;; This function calls:
  1578 ;;		__Umul8_16
  1579 ;; This function is called by:
  1580 ;;		_main
  1581 ;; This function uses a non-reentrant model
  1582 ;;
  1583                           
  1584                           
  1585                           ;psect for function ___flmul
  1586  0017                     ___flmul:
  1587  0017                     l1366:	
  1588                           ;incstack = 0
  1589                           ; Regs used in ___flmul: [wreg+status,2+status,0+btemp+1+pclath+cstack]
  1590                           
  1591  0017  1283               	bcf	3,5	;RP0=0, select bank0
  1592  0018  1303               	bcf	3,6	;RP1=0, select bank0
  1593  0019  0831               	movf	___flmul@b+3,w
  1594  001A  3980               	andlw	128
  1595  001B  00B6               	movwf	??___flmul
  1596  001C  0836               	movf	??___flmul,w
  1597  001D  00BB               	movwf	___flmul@sign
  1598  001E                     l1368:
  1599  001E  0831               	movf	___flmul@b+3,w
  1600  001F  00B6               	movwf	??___flmul
  1601  0020  0736               	addwf	??___flmul,w
  1602  0021  00B7               	movwf	??___flmul+1
  1603  0022  0837               	movf	??___flmul+1,w
  1604  0023  00C1               	movwf	___flmul@bexp
  1605  0024                     l1370:
  1606  0024  1FB0               	btfss	___flmul@b+2,7
  1607  0025  2827               	goto	u1581
  1608  0026  2828               	goto	u1580
  1609  0027                     u1581:
  1610  0027  2829               	goto	l1374
  1611  0028                     u1580:
  1612  0028                     l1372:
  1613  0028  1441               	bsf	___flmul@bexp,0
  1614  0029                     l1374:
  1615  0029  0841               	movf	___flmul@bexp,w
  1616  002A  1903               	btfsc	3,2
  1617  002B  282D               	goto	u1591
  1618  002C  282E               	goto	u1590
  1619  002D                     u1591:
  1620  002D  283D               	goto	l1382
  1621  002E                     u1590:
  1622  002E                     l1376:
  1623  002E  0A41               	incf	___flmul@bexp,w
  1624  002F  1D03               	btfss	3,2
  1625  0030  2832               	goto	u1601
  1626  0031  2833               	goto	u1600
  1627  0032                     u1601:
  1628  0032  283B               	goto	l1380
  1629  0033                     u1600:
  1630  0033                     l1378:
  1631  0033  3000               	movlw	0
  1632  0034  00B1               	movwf	___flmul@b+3
  1633  0035  3000               	movlw	0
  1634  0036  00B0               	movwf	___flmul@b+2
  1635  0037  3000               	movlw	0
  1636  0038  00AF               	movwf	___flmul@b+1
  1637  0039  3000               	movlw	0
  1638  003A  00AE               	movwf	___flmul@b
  1639  003B                     l1380:
  1640  003B  17B0               	bsf	___flmul@b+2,7
  1641  003C  2845               	goto	l1384
  1642  003D                     l1382:
  1643  003D  3000               	movlw	0
  1644  003E  00B1               	movwf	___flmul@b+3
  1645  003F  3000               	movlw	0
  1646  0040  00B0               	movwf	___flmul@b+2
  1647  0041  3000               	movlw	0
  1648  0042  00AF               	movwf	___flmul@b+1
  1649  0043  3000               	movlw	0
  1650  0044  00AE               	movwf	___flmul@b
  1651  0045                     l1384:
  1652  0045  0835               	movf	___flmul@a+3,w
  1653  0046  3980               	andlw	128
  1654  0047  00B6               	movwf	??___flmul
  1655  0048  0836               	movf	??___flmul,w
  1656  0049  06BB               	xorwf	___flmul@sign,f
  1657  004A                     l1386:
  1658  004A  0835               	movf	___flmul@a+3,w
  1659  004B  00B6               	movwf	??___flmul
  1660  004C  0736               	addwf	??___flmul,w
  1661  004D  00B7               	movwf	??___flmul+1
  1662  004E  0837               	movf	??___flmul+1,w
  1663  004F  00BC               	movwf	___flmul@aexp
  1664  0050                     l1388:
  1665  0050  1FB4               	btfss	___flmul@a+2,7
  1666  0051  2853               	goto	u1611
  1667  0052  2854               	goto	u1610
  1668  0053                     u1611:
  1669  0053  2855               	goto	l1392
  1670  0054                     u1610:
  1671  0054                     l1390:
  1672  0054  143C               	bsf	___flmul@aexp,0
  1673  0055                     l1392:
  1674  0055  083C               	movf	___flmul@aexp,w
  1675  0056  1903               	btfsc	3,2
  1676  0057  2859               	goto	u1621
  1677  0058  285A               	goto	u1620
  1678  0059                     u1621:
  1679  0059  2869               	goto	l1400
  1680  005A                     u1620:
  1681  005A                     l1394:
  1682  005A  0A3C               	incf	___flmul@aexp,w
  1683  005B  1D03               	btfss	3,2
  1684  005C  285E               	goto	u1631
  1685  005D  285F               	goto	u1630
  1686  005E                     u1631:
  1687  005E  2867               	goto	l1398
  1688  005F                     u1630:
  1689  005F                     l1396:
  1690  005F  3000               	movlw	0
  1691  0060  00B5               	movwf	___flmul@a+3
  1692  0061  3000               	movlw	0
  1693  0062  00B4               	movwf	___flmul@a+2
  1694  0063  3000               	movlw	0
  1695  0064  00B3               	movwf	___flmul@a+1
  1696  0065  3000               	movlw	0
  1697  0066  00B2               	movwf	___flmul@a
  1698  0067                     l1398:
  1699  0067  17B4               	bsf	___flmul@a+2,7
  1700  0068  2871               	goto	l1402
  1701  0069                     l1400:
  1702  0069  3000               	movlw	0
  1703  006A  00B5               	movwf	___flmul@a+3
  1704  006B  3000               	movlw	0
  1705  006C  00B4               	movwf	___flmul@a+2
  1706  006D  3000               	movlw	0
  1707  006E  00B3               	movwf	___flmul@a+1
  1708  006F  3000               	movlw	0
  1709  0070  00B2               	movwf	___flmul@a
  1710  0071                     l1402:
  1711  0071  083C               	movf	___flmul@aexp,w
  1712  0072  1903               	btfsc	3,2
  1713  0073  2875               	goto	u1641
  1714  0074  2876               	goto	u1640
  1715  0075                     u1641:
  1716  0075  287B               	goto	l1406
  1717  0076                     u1640:
  1718  0076                     l1404:
  1719  0076  0841               	movf	___flmul@bexp,w
  1720  0077  1D03               	btfss	3,2
  1721  0078  287A               	goto	u1651
  1722  0079  287B               	goto	u1650
  1723  007A                     u1651:
  1724  007A  2884               	goto	l1410
  1725  007B                     u1650:
  1726  007B                     l1406:
  1727  007B  3000               	movlw	0
  1728  007C  00B1               	movwf	?___flmul+3
  1729  007D  3000               	movlw	0
  1730  007E  00B0               	movwf	?___flmul+2
  1731  007F  3000               	movlw	0
  1732  0080  00AF               	movwf	?___flmul+1
  1733  0081  3000               	movlw	0
  1734  0082  00AE               	movwf	?___flmul
  1735  0083  2B77               	goto	l577
  1736  0084                     l1410:
  1737  0084  082E               	movf	___flmul@b,w
  1738  0085  00B6               	movwf	??___flmul
  1739  0086  0836               	movf	??___flmul,w
  1740  0087  00F4               	movwf	__Umul8_16@multiplicand
  1741  0088  0834               	movf	___flmul@a+2,w
  1742  0089  120A  118A  2561  120A  118A  	fcall	__Umul8_16
  1743  008E  0875               	movf	?__Umul8_16+1,w
  1744  008F  1283               	bcf	3,5	;RP0=0, select bank0
  1745  0090  1303               	bcf	3,6	;RP1=0, select bank0
  1746  0091  00C7               	movwf	___flmul@temp+1
  1747  0092  0874               	movf	?__Umul8_16,w
  1748  0093  00C6               	movwf	___flmul@temp
  1749  0094                     l1412:
  1750  0094  0846               	movf	___flmul@temp,w
  1751  0095  00B6               	movwf	??___flmul
  1752  0096  01B7               	clrf	??___flmul+1
  1753  0097  01B8               	clrf	??___flmul+2
  1754  0098  01B9               	clrf	??___flmul+3
  1755  0099  0839               	movf	??___flmul+3,w
  1756  009A  00C0               	movwf	___flmul@grs+3
  1757  009B  0838               	movf	??___flmul+2,w
  1758  009C  00BF               	movwf	___flmul@grs+2
  1759  009D  0837               	movf	??___flmul+1,w
  1760  009E  00BE               	movwf	___flmul@grs+1
  1761  009F  0836               	movf	??___flmul,w
  1762  00A0  00BD               	movwf	___flmul@grs
  1763  00A1                     l1414:
  1764  00A1  0847               	movf	___flmul@temp+1,w
  1765  00A2  00B6               	movwf	??___flmul
  1766  00A3  01B7               	clrf	??___flmul+1
  1767  00A4  01B8               	clrf	??___flmul+2
  1768  00A5  01B9               	clrf	??___flmul+3
  1769  00A6  0839               	movf	??___flmul+3,w
  1770  00A7  00C5               	movwf	___flmul@prod+3
  1771  00A8  0838               	movf	??___flmul+2,w
  1772  00A9  00C4               	movwf	___flmul@prod+2
  1773  00AA  0837               	movf	??___flmul+1,w
  1774  00AB  00C3               	movwf	___flmul@prod+1
  1775  00AC  0836               	movf	??___flmul,w
  1776  00AD  00C2               	movwf	___flmul@prod
  1777  00AE  082F               	movf	___flmul@b+1,w
  1778  00AF  00B6               	movwf	??___flmul
  1779  00B0  0836               	movf	??___flmul,w
  1780  00B1  00F4               	movwf	__Umul8_16@multiplicand
  1781  00B2  0833               	movf	___flmul@a+1,w
  1782  00B3  120A  118A  2561  120A  118A  	fcall	__Umul8_16
  1783  00B8  0875               	movf	?__Umul8_16+1,w
  1784  00B9  1283               	bcf	3,5	;RP0=0, select bank0
  1785  00BA  1303               	bcf	3,6	;RP1=0, select bank0
  1786  00BB  00C7               	movwf	___flmul@temp+1
  1787  00BC  0874               	movf	?__Umul8_16,w
  1788  00BD  00C6               	movwf	___flmul@temp
  1789  00BE                     l1416:
  1790  00BE  0846               	movf	___flmul@temp,w
  1791  00BF  00B6               	movwf	??___flmul
  1792  00C0  01B7               	clrf	??___flmul+1
  1793  00C1  01B8               	clrf	??___flmul+2
  1794  00C2  01B9               	clrf	??___flmul+3
  1795  00C3  0836               	movf	??___flmul,w
  1796  00C4  07BD               	addwf	___flmul@grs,f
  1797  00C5  0837               	movf	??___flmul+1,w
  1798  00C6  1103               	clrz
  1799  00C7  1803               	skipnc
  1800  00C8  3E01               	addlw	1
  1801  00C9  1903               	skipnz
  1802  00CA  28CC               	goto	u1661
  1803  00CB  07BE               	addwf	___flmul@grs+1,f
  1804  00CC                     u1661:
  1805  00CC  0838               	movf	??___flmul+2,w
  1806  00CD  1103               	clrz
  1807  00CE  1803               	skipnc
  1808  00CF  3E01               	addlw	1
  1809  00D0  1903               	skipnz
  1810  00D1  28D3               	goto	u1662
  1811  00D2  07BF               	addwf	___flmul@grs+2,f
  1812  00D3                     u1662:
  1813  00D3  0839               	movf	??___flmul+3,w
  1814  00D4  1103               	clrz
  1815  00D5  1803               	skipnc
  1816  00D6  3E01               	addlw	1
  1817  00D7  1903               	skipnz
  1818  00D8  28DA               	goto	u1663
  1819  00D9  07C0               	addwf	___flmul@grs+3,f
  1820  00DA                     u1663:
  1821  00DA                     l1418:
  1822  00DA  0847               	movf	___flmul@temp+1,w
  1823  00DB  00B6               	movwf	??___flmul
  1824  00DC  01B7               	clrf	??___flmul+1
  1825  00DD  01B8               	clrf	??___flmul+2
  1826  00DE  01B9               	clrf	??___flmul+3
  1827  00DF  0836               	movf	??___flmul,w
  1828  00E0  07C2               	addwf	___flmul@prod,f
  1829  00E1  0837               	movf	??___flmul+1,w
  1830  00E2  1103               	clrz
  1831  00E3  1803               	skipnc
  1832  00E4  3E01               	addlw	1
  1833  00E5  1903               	skipnz
  1834  00E6  28E8               	goto	u1671
  1835  00E7  07C3               	addwf	___flmul@prod+1,f
  1836  00E8                     u1671:
  1837  00E8  0838               	movf	??___flmul+2,w
  1838  00E9  1103               	clrz
  1839  00EA  1803               	skipnc
  1840  00EB  3E01               	addlw	1
  1841  00EC  1903               	skipnz
  1842  00ED  28EF               	goto	u1672
  1843  00EE  07C4               	addwf	___flmul@prod+2,f
  1844  00EF                     u1672:
  1845  00EF  0839               	movf	??___flmul+3,w
  1846  00F0  1103               	clrz
  1847  00F1  1803               	skipnc
  1848  00F2  3E01               	addlw	1
  1849  00F3  1903               	skipnz
  1850  00F4  28F6               	goto	u1673
  1851  00F5  07C5               	addwf	___flmul@prod+3,f
  1852  00F6                     u1673:
  1853  00F6  0830               	movf	___flmul@b+2,w
  1854  00F7  00B6               	movwf	??___flmul
  1855  00F8  0836               	movf	??___flmul,w
  1856  00F9  00F4               	movwf	__Umul8_16@multiplicand
  1857  00FA  0832               	movf	___flmul@a,w
  1858  00FB  120A  118A  2561  120A  118A  	fcall	__Umul8_16
  1859  0100  0875               	movf	?__Umul8_16+1,w
  1860  0101  1283               	bcf	3,5	;RP0=0, select bank0
  1861  0102  1303               	bcf	3,6	;RP1=0, select bank0
  1862  0103  00C7               	movwf	___flmul@temp+1
  1863  0104  0874               	movf	?__Umul8_16,w
  1864  0105  00C6               	movwf	___flmul@temp
  1865  0106                     l1420:
  1866  0106  0846               	movf	___flmul@temp,w
  1867  0107  00B6               	movwf	??___flmul
  1868  0108  01B7               	clrf	??___flmul+1
  1869  0109  01B8               	clrf	??___flmul+2
  1870  010A  01B9               	clrf	??___flmul+3
  1871  010B  0836               	movf	??___flmul,w
  1872  010C  07BD               	addwf	___flmul@grs,f
  1873  010D  0837               	movf	??___flmul+1,w
  1874  010E  1103               	clrz
  1875  010F  1803               	skipnc
  1876  0110  3E01               	addlw	1
  1877  0111  1903               	skipnz
  1878  0112  2914               	goto	u1681
  1879  0113  07BE               	addwf	___flmul@grs+1,f
  1880  0114                     u1681:
  1881  0114  0838               	movf	??___flmul+2,w
  1882  0115  1103               	clrz
  1883  0116  1803               	skipnc
  1884  0117  3E01               	addlw	1
  1885  0118  1903               	skipnz
  1886  0119  291B               	goto	u1682
  1887  011A  07BF               	addwf	___flmul@grs+2,f
  1888  011B                     u1682:
  1889  011B  0839               	movf	??___flmul+3,w
  1890  011C  1103               	clrz
  1891  011D  1803               	skipnc
  1892  011E  3E01               	addlw	1
  1893  011F  1903               	skipnz
  1894  0120  2922               	goto	u1683
  1895  0121  07C0               	addwf	___flmul@grs+3,f
  1896  0122                     u1683:
  1897  0122                     l1422:
  1898  0122  0847               	movf	___flmul@temp+1,w
  1899  0123  00B6               	movwf	??___flmul
  1900  0124  01B7               	clrf	??___flmul+1
  1901  0125  01B8               	clrf	??___flmul+2
  1902  0126  01B9               	clrf	??___flmul+3
  1903  0127  0836               	movf	??___flmul,w
  1904  0128  07C2               	addwf	___flmul@prod,f
  1905  0129  0837               	movf	??___flmul+1,w
  1906  012A  1103               	clrz
  1907  012B  1803               	skipnc
  1908  012C  3E01               	addlw	1
  1909  012D  1903               	skipnz
  1910  012E  2930               	goto	u1691
  1911  012F  07C3               	addwf	___flmul@prod+1,f
  1912  0130                     u1691:
  1913  0130  0838               	movf	??___flmul+2,w
  1914  0131  1103               	clrz
  1915  0132  1803               	skipnc
  1916  0133  3E01               	addlw	1
  1917  0134  1903               	skipnz
  1918  0135  2937               	goto	u1692
  1919  0136  07C4               	addwf	___flmul@prod+2,f
  1920  0137                     u1692:
  1921  0137  0839               	movf	??___flmul+3,w
  1922  0138  1103               	clrz
  1923  0139  1803               	skipnc
  1924  013A  3E01               	addlw	1
  1925  013B  1903               	skipnz
  1926  013C  293E               	goto	u1693
  1927  013D  07C5               	addwf	___flmul@prod+3,f
  1928  013E                     u1693:
  1929  013E                     l1424:
  1930  013E  3008               	movlw	8
  1931  013F  00B6               	movwf	??___flmul
  1932  0140                     u1705:
  1933  0140  1003               	clrc
  1934  0141  0DBD               	rlf	___flmul@grs,f
  1935  0142  0DBE               	rlf	___flmul@grs+1,f
  1936  0143  0DBF               	rlf	___flmul@grs+2,f
  1937  0144  0DC0               	rlf	___flmul@grs+3,f
  1938  0145  0BB6               	decfsz	??___flmul,f
  1939  0146  2940               	goto	u1705
  1940  0147                     l1426:
  1941  0147  082F               	movf	___flmul@b+1,w
  1942  0148  00B6               	movwf	??___flmul
  1943  0149  0836               	movf	??___flmul,w
  1944  014A  00F4               	movwf	__Umul8_16@multiplicand
  1945  014B  0832               	movf	___flmul@a,w
  1946  014C  120A  118A  2561  120A  118A  	fcall	__Umul8_16
  1947  0151  0875               	movf	?__Umul8_16+1,w
  1948  0152  1283               	bcf	3,5	;RP0=0, select bank0
  1949  0153  1303               	bcf	3,6	;RP1=0, select bank0
  1950  0154  00C7               	movwf	___flmul@temp+1
  1951  0155  0874               	movf	?__Umul8_16,w
  1952  0156  00C6               	movwf	___flmul@temp
  1953  0157                     l1428:
  1954  0157  0846               	movf	___flmul@temp,w
  1955  0158  00B6               	movwf	??___flmul
  1956  0159  0847               	movf	___flmul@temp+1,w
  1957  015A  00B7               	movwf	??___flmul+1
  1958  015B  01B8               	clrf	??___flmul+2
  1959  015C  01B9               	clrf	??___flmul+3
  1960  015D  0836               	movf	??___flmul,w
  1961  015E  07BD               	addwf	___flmul@grs,f
  1962  015F  0837               	movf	??___flmul+1,w
  1963  0160  1103               	clrz
  1964  0161  1803               	skipnc
  1965  0162  3E01               	addlw	1
  1966  0163  1903               	skipnz
  1967  0164  2966               	goto	u1711
  1968  0165  07BE               	addwf	___flmul@grs+1,f
  1969  0166                     u1711:
  1970  0166  0838               	movf	??___flmul+2,w
  1971  0167  1103               	clrz
  1972  0168  1803               	skipnc
  1973  0169  3E01               	addlw	1
  1974  016A  1903               	skipnz
  1975  016B  296D               	goto	u1712
  1976  016C  07BF               	addwf	___flmul@grs+2,f
  1977  016D                     u1712:
  1978  016D  0839               	movf	??___flmul+3,w
  1979  016E  1103               	clrz
  1980  016F  1803               	skipnc
  1981  0170  3E01               	addlw	1
  1982  0171  1903               	skipnz
  1983  0172  2974               	goto	u1713
  1984  0173  07C0               	addwf	___flmul@grs+3,f
  1985  0174                     u1713:
  1986  0174                     l1430:
  1987  0174  082E               	movf	___flmul@b,w
  1988  0175  00B6               	movwf	??___flmul
  1989  0176  0836               	movf	??___flmul,w
  1990  0177  00F4               	movwf	__Umul8_16@multiplicand
  1991  0178  0833               	movf	___flmul@a+1,w
  1992  0179  120A  118A  2561  120A  118A  	fcall	__Umul8_16
  1993  017E  0875               	movf	?__Umul8_16+1,w
  1994  017F  1283               	bcf	3,5	;RP0=0, select bank0
  1995  0180  1303               	bcf	3,6	;RP1=0, select bank0
  1996  0181  00C7               	movwf	___flmul@temp+1
  1997  0182  0874               	movf	?__Umul8_16,w
  1998  0183  00C6               	movwf	___flmul@temp
  1999  0184                     l1432:
  2000  0184  0846               	movf	___flmul@temp,w
  2001  0185  00B6               	movwf	??___flmul
  2002  0186  0847               	movf	___flmul@temp+1,w
  2003  0187  00B7               	movwf	??___flmul+1
  2004  0188  01B8               	clrf	??___flmul+2
  2005  0189  01B9               	clrf	??___flmul+3
  2006  018A  0836               	movf	??___flmul,w
  2007  018B  07BD               	addwf	___flmul@grs,f
  2008  018C  0837               	movf	??___flmul+1,w
  2009  018D  1103               	clrz
  2010  018E  1803               	skipnc
  2011  018F  3E01               	addlw	1
  2012  0190  1903               	skipnz
  2013  0191  2993               	goto	u1721
  2014  0192  07BE               	addwf	___flmul@grs+1,f
  2015  0193                     u1721:
  2016  0193  0838               	movf	??___flmul+2,w
  2017  0194  1103               	clrz
  2018  0195  1803               	skipnc
  2019  0196  3E01               	addlw	1
  2020  0197  1903               	skipnz
  2021  0198  299A               	goto	u1722
  2022  0199  07BF               	addwf	___flmul@grs+2,f
  2023  019A                     u1722:
  2024  019A  0839               	movf	??___flmul+3,w
  2025  019B  1103               	clrz
  2026  019C  1803               	skipnc
  2027  019D  3E01               	addlw	1
  2028  019E  1903               	skipnz
  2029  019F  29A1               	goto	u1723
  2030  01A0  07C0               	addwf	___flmul@grs+3,f
  2031  01A1                     u1723:
  2032  01A1                     l1434:
  2033  01A1  3008               	movlw	8
  2034  01A2  00B6               	movwf	??___flmul
  2035  01A3                     u1735:
  2036  01A3  1003               	clrc
  2037  01A4  0DBD               	rlf	___flmul@grs,f
  2038  01A5  0DBE               	rlf	___flmul@grs+1,f
  2039  01A6  0DBF               	rlf	___flmul@grs+2,f
  2040  01A7  0DC0               	rlf	___flmul@grs+3,f
  2041  01A8  0BB6               	decfsz	??___flmul,f
  2042  01A9  29A3               	goto	u1735
  2043  01AA  082E               	movf	___flmul@b,w
  2044  01AB  00B6               	movwf	??___flmul
  2045  01AC  0836               	movf	??___flmul,w
  2046  01AD  00F4               	movwf	__Umul8_16@multiplicand
  2047  01AE  0832               	movf	___flmul@a,w
  2048  01AF  120A  118A  2561  120A  118A  	fcall	__Umul8_16
  2049  01B4  0875               	movf	?__Umul8_16+1,w
  2050  01B5  1283               	bcf	3,5	;RP0=0, select bank0
  2051  01B6  1303               	bcf	3,6	;RP1=0, select bank0
  2052  01B7  00C7               	movwf	___flmul@temp+1
  2053  01B8  0874               	movf	?__Umul8_16,w
  2054  01B9  00C6               	movwf	___flmul@temp
  2055  01BA                     l1436:
  2056  01BA  0846               	movf	___flmul@temp,w
  2057  01BB  00B6               	movwf	??___flmul
  2058  01BC  0847               	movf	___flmul@temp+1,w
  2059  01BD  00B7               	movwf	??___flmul+1
  2060  01BE  01B8               	clrf	??___flmul+2
  2061  01BF  01B9               	clrf	??___flmul+3
  2062  01C0  0836               	movf	??___flmul,w
  2063  01C1  07BD               	addwf	___flmul@grs,f
  2064  01C2  0837               	movf	??___flmul+1,w
  2065  01C3  1103               	clrz
  2066  01C4  1803               	skipnc
  2067  01C5  3E01               	addlw	1
  2068  01C6  1903               	skipnz
  2069  01C7  29C9               	goto	u1741
  2070  01C8  07BE               	addwf	___flmul@grs+1,f
  2071  01C9                     u1741:
  2072  01C9  0838               	movf	??___flmul+2,w
  2073  01CA  1103               	clrz
  2074  01CB  1803               	skipnc
  2075  01CC  3E01               	addlw	1
  2076  01CD  1903               	skipnz
  2077  01CE  29D0               	goto	u1742
  2078  01CF  07BF               	addwf	___flmul@grs+2,f
  2079  01D0                     u1742:
  2080  01D0  0839               	movf	??___flmul+3,w
  2081  01D1  1103               	clrz
  2082  01D2  1803               	skipnc
  2083  01D3  3E01               	addlw	1
  2084  01D4  1903               	skipnz
  2085  01D5  29D7               	goto	u1743
  2086  01D6  07C0               	addwf	___flmul@grs+3,f
  2087  01D7                     u1743:
  2088  01D7                     l1438:
  2089  01D7  082F               	movf	___flmul@b+1,w
  2090  01D8  00B6               	movwf	??___flmul
  2091  01D9  0836               	movf	??___flmul,w
  2092  01DA  00F4               	movwf	__Umul8_16@multiplicand
  2093  01DB  0834               	movf	___flmul@a+2,w
  2094  01DC  120A  118A  2561  120A  118A  	fcall	__Umul8_16
  2095  01E1  0875               	movf	?__Umul8_16+1,w
  2096  01E2  1283               	bcf	3,5	;RP0=0, select bank0
  2097  01E3  1303               	bcf	3,6	;RP1=0, select bank0
  2098  01E4  00C7               	movwf	___flmul@temp+1
  2099  01E5  0874               	movf	?__Umul8_16,w
  2100  01E6  00C6               	movwf	___flmul@temp
  2101  01E7  0846               	movf	___flmul@temp,w
  2102  01E8  00B6               	movwf	??___flmul
  2103  01E9  0847               	movf	___flmul@temp+1,w
  2104  01EA  00B7               	movwf	??___flmul+1
  2105  01EB  01B8               	clrf	??___flmul+2
  2106  01EC  01B9               	clrf	??___flmul+3
  2107  01ED  0836               	movf	??___flmul,w
  2108  01EE  07C2               	addwf	___flmul@prod,f
  2109  01EF  0837               	movf	??___flmul+1,w
  2110  01F0  1103               	clrz
  2111  01F1  1803               	skipnc
  2112  01F2  3E01               	addlw	1
  2113  01F3  1903               	skipnz
  2114  01F4  29F6               	goto	u1751
  2115  01F5  07C3               	addwf	___flmul@prod+1,f
  2116  01F6                     u1751:
  2117  01F6  0838               	movf	??___flmul+2,w
  2118  01F7  1103               	clrz
  2119  01F8  1803               	skipnc
  2120  01F9  3E01               	addlw	1
  2121  01FA  1903               	skipnz
  2122  01FB  29FD               	goto	u1752
  2123  01FC  07C4               	addwf	___flmul@prod+2,f
  2124  01FD                     u1752:
  2125  01FD  0839               	movf	??___flmul+3,w
  2126  01FE  1103               	clrz
  2127  01FF  1803               	skipnc
  2128  0200  3E01               	addlw	1
  2129  0201  1903               	skipnz
  2130  0202  2A04               	goto	u1753
  2131  0203  07C5               	addwf	___flmul@prod+3,f
  2132  0204                     u1753:
  2133  0204                     l1440:
  2134  0204  0830               	movf	___flmul@b+2,w
  2135  0205  00B6               	movwf	??___flmul
  2136  0206  0836               	movf	??___flmul,w
  2137  0207  00F4               	movwf	__Umul8_16@multiplicand
  2138  0208  0833               	movf	___flmul@a+1,w
  2139  0209  120A  118A  2561  120A  118A  	fcall	__Umul8_16
  2140  020E  0875               	movf	?__Umul8_16+1,w
  2141  020F  1283               	bcf	3,5	;RP0=0, select bank0
  2142  0210  1303               	bcf	3,6	;RP1=0, select bank0
  2143  0211  00C7               	movwf	___flmul@temp+1
  2144  0212  0874               	movf	?__Umul8_16,w
  2145  0213  00C6               	movwf	___flmul@temp
  2146  0214                     l1442:
  2147  0214  0846               	movf	___flmul@temp,w
  2148  0215  00B6               	movwf	??___flmul
  2149  0216  0847               	movf	___flmul@temp+1,w
  2150  0217  00B7               	movwf	??___flmul+1
  2151  0218  01B8               	clrf	??___flmul+2
  2152  0219  01B9               	clrf	??___flmul+3
  2153  021A  0836               	movf	??___flmul,w
  2154  021B  07C2               	addwf	___flmul@prod,f
  2155  021C  0837               	movf	??___flmul+1,w
  2156  021D  1103               	clrz
  2157  021E  1803               	skipnc
  2158  021F  3E01               	addlw	1
  2159  0220  1903               	skipnz
  2160  0221  2A23               	goto	u1761
  2161  0222  07C3               	addwf	___flmul@prod+1,f
  2162  0223                     u1761:
  2163  0223  0838               	movf	??___flmul+2,w
  2164  0224  1103               	clrz
  2165  0225  1803               	skipnc
  2166  0226  3E01               	addlw	1
  2167  0227  1903               	skipnz
  2168  0228  2A2A               	goto	u1762
  2169  0229  07C4               	addwf	___flmul@prod+2,f
  2170  022A                     u1762:
  2171  022A  0839               	movf	??___flmul+3,w
  2172  022B  1103               	clrz
  2173  022C  1803               	skipnc
  2174  022D  3E01               	addlw	1
  2175  022E  1903               	skipnz
  2176  022F  2A31               	goto	u1763
  2177  0230  07C5               	addwf	___flmul@prod+3,f
  2178  0231                     u1763:
  2179  0231  0830               	movf	___flmul@b+2,w
  2180  0232  00B6               	movwf	??___flmul
  2181  0233  0836               	movf	??___flmul,w
  2182  0234  00F4               	movwf	__Umul8_16@multiplicand
  2183  0235  0834               	movf	___flmul@a+2,w
  2184  0236  120A  118A  2561  120A  118A  	fcall	__Umul8_16
  2185  023B  0875               	movf	?__Umul8_16+1,w
  2186  023C  1283               	bcf	3,5	;RP0=0, select bank0
  2187  023D  1303               	bcf	3,6	;RP1=0, select bank0
  2188  023E  00C7               	movwf	___flmul@temp+1
  2189  023F  0874               	movf	?__Umul8_16,w
  2190  0240  00C6               	movwf	___flmul@temp
  2191  0241                     l1444:
  2192  0241  0846               	movf	___flmul@temp,w
  2193  0242  00B6               	movwf	??___flmul
  2194  0243  0847               	movf	___flmul@temp+1,w
  2195  0244  00B7               	movwf	??___flmul+1
  2196  0245  01B8               	clrf	??___flmul+2
  2197  0246  01B9               	clrf	??___flmul+3
  2198  0247  3008               	movlw	8
  2199  0248                     u1775:
  2200  0248  1003               	clrc
  2201  0249  0DB6               	rlf	??___flmul,f
  2202  024A  0DB7               	rlf	??___flmul+1,f
  2203  024B  0DB8               	rlf	??___flmul+2,f
  2204  024C  0DB9               	rlf	??___flmul+3,f
  2205  024D                     u1770:
  2206  024D  3EFF               	addlw	-1
  2207  024E  1D03               	skipz
  2208  024F  2A48               	goto	u1775
  2209  0250  0836               	movf	??___flmul,w
  2210  0251  07C2               	addwf	___flmul@prod,f
  2211  0252  0837               	movf	??___flmul+1,w
  2212  0253  1103               	clrz
  2213  0254  1803               	skipnc
  2214  0255  3E01               	addlw	1
  2215  0256  1903               	skipnz
  2216  0257  2A59               	goto	u1781
  2217  0258  07C3               	addwf	___flmul@prod+1,f
  2218  0259                     u1781:
  2219  0259  0838               	movf	??___flmul+2,w
  2220  025A  1103               	clrz
  2221  025B  1803               	skipnc
  2222  025C  3E01               	addlw	1
  2223  025D  1903               	skipnz
  2224  025E  2A60               	goto	u1782
  2225  025F  07C4               	addwf	___flmul@prod+2,f
  2226  0260                     u1782:
  2227  0260  0839               	movf	??___flmul+3,w
  2228  0261  1103               	clrz
  2229  0262  1803               	skipnc
  2230  0263  3E01               	addlw	1
  2231  0264  1903               	skipnz
  2232  0265  2A67               	goto	u1783
  2233  0266  07C5               	addwf	___flmul@prod+3,f
  2234  0267                     u1783:
  2235  0267                     l1446:
  2236  0267  083D               	movf	___flmul@grs,w
  2237  0268  00B6               	movwf	??___flmul
  2238  0269  083E               	movf	___flmul@grs+1,w
  2239  026A  00B7               	movwf	??___flmul+1
  2240  026B  083F               	movf	___flmul@grs+2,w
  2241  026C  00B8               	movwf	??___flmul+2
  2242  026D  0840               	movf	___flmul@grs+3,w
  2243  026E  00B9               	movwf	??___flmul+3
  2244  026F  3018               	movlw	24
  2245  0270                     u1795:
  2246  0270  1003               	clrc
  2247  0271  0CB9               	rrf	??___flmul+3,f
  2248  0272  0CB8               	rrf	??___flmul+2,f
  2249  0273  0CB7               	rrf	??___flmul+1,f
  2250  0274  0CB6               	rrf	??___flmul,f
  2251  0275                     u1790:
  2252  0275  3EFF               	addlw	-1
  2253  0276  1D03               	skipz
  2254  0277  2A70               	goto	u1795
  2255  0278  0836               	movf	??___flmul,w
  2256  0279  07C2               	addwf	___flmul@prod,f
  2257  027A  0837               	movf	??___flmul+1,w
  2258  027B  1103               	clrz
  2259  027C  1803               	skipnc
  2260  027D  3E01               	addlw	1
  2261  027E  1903               	skipnz
  2262  027F  2A81               	goto	u1801
  2263  0280  07C3               	addwf	___flmul@prod+1,f
  2264  0281                     u1801:
  2265  0281  0838               	movf	??___flmul+2,w
  2266  0282  1103               	clrz
  2267  0283  1803               	skipnc
  2268  0284  3E01               	addlw	1
  2269  0285  1903               	skipnz
  2270  0286  2A88               	goto	u1802
  2271  0287  07C4               	addwf	___flmul@prod+2,f
  2272  0288                     u1802:
  2273  0288  0839               	movf	??___flmul+3,w
  2274  0289  1103               	clrz
  2275  028A  1803               	skipnc
  2276  028B  3E01               	addlw	1
  2277  028C  1903               	skipnz
  2278  028D  2A8F               	goto	u1803
  2279  028E  07C5               	addwf	___flmul@prod+3,f
  2280  028F                     u1803:
  2281  028F                     l1448:
  2282  028F  3008               	movlw	8
  2283  0290  00B6               	movwf	??___flmul
  2284  0291                     u1815:
  2285  0291  1003               	clrc
  2286  0292  0DBD               	rlf	___flmul@grs,f
  2287  0293  0DBE               	rlf	___flmul@grs+1,f
  2288  0294  0DBF               	rlf	___flmul@grs+2,f
  2289  0295  0DC0               	rlf	___flmul@grs+3,f
  2290  0296  0BB6               	decfsz	??___flmul,f
  2291  0297  2A91               	goto	u1815
  2292  0298                     l1450:
  2293  0298  0841               	movf	___flmul@bexp,w
  2294  0299  073C               	addwf	___flmul@aexp,w
  2295  029A  00B6               	movwf	??___flmul
  2296  029B  01B7               	clrf	??___flmul+1
  2297  029C  0DB7               	rlf	??___flmul+1,f
  2298  029D  0836               	movf	??___flmul,w
  2299  029E  3E82               	addlw	130
  2300  029F  00C6               	movwf	___flmul@temp
  2301  02A0  0837               	movf	??___flmul+1,w
  2302  02A1  1803               	skipnc
  2303  02A2  3E01               	addlw	1
  2304  02A3  3EFF               	addlw	255
  2305  02A4  00C7               	movwf	___flmul@temp+1
  2306  02A5  2AC3               	goto	l1462
  2307  02A6                     l1452:
  2308  02A6  3001               	movlw	1
  2309  02A7  00B6               	movwf	??___flmul
  2310  02A8                     u1825:
  2311  02A8  1003               	clrc
  2312  02A9  0DC2               	rlf	___flmul@prod,f
  2313  02AA  0DC3               	rlf	___flmul@prod+1,f
  2314  02AB  0DC4               	rlf	___flmul@prod+2,f
  2315  02AC  0DC5               	rlf	___flmul@prod+3,f
  2316  02AD  0BB6               	decfsz	??___flmul,f
  2317  02AE  2AA8               	goto	u1825
  2318  02AF                     l1454:
  2319  02AF  1FC0               	btfss	___flmul@grs+3,7
  2320  02B0  2AB2               	goto	u1831
  2321  02B1  2AB3               	goto	u1830
  2322  02B2                     u1831:
  2323  02B2  2AB4               	goto	l1458
  2324  02B3                     u1830:
  2325  02B3                     l1456:
  2326  02B3  1442               	bsf	___flmul@prod,0
  2327  02B4                     l1458:
  2328  02B4  3001               	movlw	1
  2329  02B5  00B6               	movwf	??___flmul
  2330  02B6                     u1845:
  2331  02B6  1003               	clrc
  2332  02B7  0DBD               	rlf	___flmul@grs,f
  2333  02B8  0DBE               	rlf	___flmul@grs+1,f
  2334  02B9  0DBF               	rlf	___flmul@grs+2,f
  2335  02BA  0DC0               	rlf	___flmul@grs+3,f
  2336  02BB  0BB6               	decfsz	??___flmul,f
  2337  02BC  2AB6               	goto	u1845
  2338  02BD                     l1460:
  2339  02BD  30FF               	movlw	255
  2340  02BE  07C6               	addwf	___flmul@temp,f
  2341  02BF  1803               	skipnc
  2342  02C0  0AC7               	incf	___flmul@temp+1,f
  2343  02C1  30FF               	movlw	255
  2344  02C2  07C7               	addwf	___flmul@temp+1,f
  2345  02C3                     l1462:
  2346  02C3  1FC4               	btfss	___flmul@prod+2,7
  2347  02C4  2AC6               	goto	u1851
  2348  02C5  2AC7               	goto	u1850
  2349  02C6                     u1851:
  2350  02C6  2AA6               	goto	l1452
  2351  02C7                     u1850:
  2352  02C7                     l1464:
  2353  02C7  01BC               	clrf	___flmul@aexp
  2354  02C8                     l1466:
  2355  02C8  1FC0               	btfss	___flmul@grs+3,7
  2356  02C9  2ACB               	goto	u1861
  2357  02CA  2ACC               	goto	u1860
  2358  02CB                     u1861:
  2359  02CB  2AE8               	goto	l1474
  2360  02CC                     u1860:
  2361  02CC                     l1468:
  2362  02CC  30FF               	movlw	255
  2363  02CD  053D               	andwf	___flmul@grs,w
  2364  02CE  00B6               	movwf	??___flmul
  2365  02CF  30FF               	movlw	255
  2366  02D0  053E               	andwf	___flmul@grs+1,w
  2367  02D1  00B7               	movwf	??___flmul+1
  2368  02D2  30FF               	movlw	255
  2369  02D3  053F               	andwf	___flmul@grs+2,w
  2370  02D4  00B8               	movwf	??___flmul+2
  2371  02D5  307F               	movlw	127
  2372  02D6  0540               	andwf	___flmul@grs+3,w
  2373  02D7  00B9               	movwf	??___flmul+3
  2374  02D8  0839               	movf	??___flmul+3,w
  2375  02D9  0438               	iorwf	??___flmul+2,w
  2376  02DA  0437               	iorwf	??___flmul+1,w
  2377  02DB  0436               	iorwf	??___flmul,w
  2378  02DC  1903               	skipnz
  2379  02DD  2ADF               	goto	u1871
  2380  02DE  2AE0               	goto	u1870
  2381  02DF                     u1871:
  2382  02DF  2AE3               	goto	l583
  2383  02E0                     u1870:
  2384  02E0                     l1470:
  2385  02E0  01BC               	clrf	___flmul@aexp
  2386  02E1  0ABC               	incf	___flmul@aexp,f
  2387  02E2  2AE8               	goto	l1474
  2388  02E3                     l583:
  2389  02E3  1C42               	btfss	___flmul@prod,0
  2390  02E4  2AE6               	goto	u1881
  2391  02E5  2AE7               	goto	u1880
  2392  02E6                     u1881:
  2393  02E6  2AE8               	goto	l1474
  2394  02E7                     u1880:
  2395  02E7  2AE0               	goto	l1470
  2396  02E8                     l1474:
  2397  02E8  083C               	movf	___flmul@aexp,w
  2398  02E9  1903               	btfsc	3,2
  2399  02EA  2AEC               	goto	u1891
  2400  02EB  2AED               	goto	u1890
  2401  02EC                     u1891:
  2402  02EC  2B1E               	goto	l1484
  2403  02ED                     u1890:
  2404  02ED                     l1476:
  2405  02ED  3001               	movlw	1
  2406  02EE  07C2               	addwf	___flmul@prod,f
  2407  02EF  3000               	movlw	0
  2408  02F0  1803               	skipnc
  2409  02F1  3001               	movlw	1
  2410  02F2  07C3               	addwf	___flmul@prod+1,f
  2411  02F3  3000               	movlw	0
  2412  02F4  1803               	skipnc
  2413  02F5  3001               	movlw	1
  2414  02F6  07C4               	addwf	___flmul@prod+2,f
  2415  02F7  3000               	movlw	0
  2416  02F8  1803               	skipnc
  2417  02F9  3001               	movlw	1
  2418  02FA  07C5               	addwf	___flmul@prod+3,f
  2419  02FB                     l1478:
  2420  02FB  1C45               	btfss	___flmul@prod+3,0
  2421  02FC  2AFE               	goto	u1901
  2422  02FD  2AFF               	goto	u1900
  2423  02FE                     u1901:
  2424  02FE  2B1E               	goto	l1484
  2425  02FF                     u1900:
  2426  02FF                     l1480:
  2427  02FF  0842               	movf	___flmul@prod,w
  2428  0300  00B6               	movwf	??___flmul
  2429  0301  0843               	movf	___flmul@prod+1,w
  2430  0302  00B7               	movwf	??___flmul+1
  2431  0303  0844               	movf	___flmul@prod+2,w
  2432  0304  00B8               	movwf	??___flmul+2
  2433  0305  0845               	movf	___flmul@prod+3,w
  2434  0306  00B9               	movwf	??___flmul+3
  2435  0307  3001               	movlw	1
  2436  0308  00BA               	movwf	??___flmul+4
  2437  0309                     u1915:
  2438  0309  0D39               	rlf	??___flmul+3,w
  2439  030A  0CB9               	rrf	??___flmul+3,f
  2440  030B  0CB8               	rrf	??___flmul+2,f
  2441  030C  0CB7               	rrf	??___flmul+1,f
  2442  030D  0CB6               	rrf	??___flmul,f
  2443  030E                     u1910:
  2444  030E  0BBA               	decfsz	??___flmul+4,f
  2445  030F  2B09               	goto	u1915
  2446  0310  0839               	movf	??___flmul+3,w
  2447  0311  00C5               	movwf	___flmul@prod+3
  2448  0312  0838               	movf	??___flmul+2,w
  2449  0313  00C4               	movwf	___flmul@prod+2
  2450  0314  0837               	movf	??___flmul+1,w
  2451  0315  00C3               	movwf	___flmul@prod+1
  2452  0316  0836               	movf	??___flmul,w
  2453  0317  00C2               	movwf	___flmul@prod
  2454  0318                     l1482:
  2455  0318  3001               	movlw	1
  2456  0319  07C6               	addwf	___flmul@temp,f
  2457  031A  1803               	skipnc
  2458  031B  0AC7               	incf	___flmul@temp+1,f
  2459  031C  3000               	movlw	0
  2460  031D  07C7               	addwf	___flmul@temp+1,f
  2461  031E                     l1484:
  2462  031E  0847               	movf	___flmul@temp+1,w
  2463  031F  3A80               	xorlw	128
  2464  0320  00FF               	movwf	btemp+1
  2465  0321  3080               	movlw	128
  2466  0322  027F               	subwf	btemp+1,w
  2467  0323  1D03               	skipz
  2468  0324  2B27               	goto	u1925
  2469  0325  30FF               	movlw	255
  2470  0326  0246               	subwf	___flmul@temp,w
  2471  0327                     u1925:
  2472  0327  1C03               	skipc
  2473  0328  2B2A               	goto	u1921
  2474  0329  2B2B               	goto	u1920
  2475  032A                     u1921:
  2476  032A  2B36               	goto	l1488
  2477  032B                     u1920:
  2478  032B                     l1486:
  2479  032B  307F               	movlw	127
  2480  032C  1283               	bcf	3,5	;RP0=0, select bank0
  2481  032D  1303               	bcf	3,6	;RP1=0, select bank0
  2482  032E  00C5               	movwf	___flmul@prod+3
  2483  032F  3080               	movlw	128
  2484  0330  00C4               	movwf	___flmul@prod+2
  2485  0331  3000               	movlw	0
  2486  0332  00C3               	movwf	___flmul@prod+1
  2487  0333  3000               	movlw	0
  2488  0334  00C2               	movwf	___flmul@prod
  2489  0335  2B6B               	goto	l589
  2490  0336                     l1488:
  2491  0336  1283               	bcf	3,5	;RP0=0, select bank0
  2492  0337  1303               	bcf	3,6	;RP1=0, select bank0
  2493  0338  0847               	movf	___flmul@temp+1,w
  2494  0339  3A80               	xorlw	128
  2495  033A  00FF               	movwf	btemp+1
  2496  033B  3080               	movlw	128
  2497  033C  027F               	subwf	btemp+1,w
  2498  033D  1D03               	skipz
  2499  033E  2B41               	goto	u1935
  2500  033F  3001               	movlw	1
  2501  0340  0246               	subwf	___flmul@temp,w
  2502  0341                     u1935:
  2503  0341  1803               	skipnc
  2504  0342  2B44               	goto	u1931
  2505  0343  2B45               	goto	u1930
  2506  0344                     u1931:
  2507  0344  2B51               	goto	l1494
  2508  0345                     u1930:
  2509  0345                     l1490:
  2510  0345  3000               	movlw	0
  2511  0346  1283               	bcf	3,5	;RP0=0, select bank0
  2512  0347  1303               	bcf	3,6	;RP1=0, select bank0
  2513  0348  00C5               	movwf	___flmul@prod+3
  2514  0349  3000               	movlw	0
  2515  034A  00C4               	movwf	___flmul@prod+2
  2516  034B  3000               	movlw	0
  2517  034C  00C3               	movwf	___flmul@prod+1
  2518  034D  3000               	movlw	0
  2519  034E  00C2               	movwf	___flmul@prod
  2520  034F                     l1492:
  2521  034F  01BB               	clrf	___flmul@sign
  2522  0350  2B6B               	goto	l589
  2523  0351                     l1494:
  2524  0351  1283               	bcf	3,5	;RP0=0, select bank0
  2525  0352  1303               	bcf	3,6	;RP1=0, select bank0
  2526  0353  0846               	movf	___flmul@temp,w
  2527  0354  00B6               	movwf	??___flmul
  2528  0355  0836               	movf	??___flmul,w
  2529  0356  00C1               	movwf	___flmul@bexp
  2530  0357  30FF               	movlw	255
  2531  0358  05C2               	andwf	___flmul@prod,f
  2532  0359  30FF               	movlw	255
  2533  035A  05C3               	andwf	___flmul@prod+1,f
  2534  035B  307F               	movlw	127
  2535  035C  05C4               	andwf	___flmul@prod+2,f
  2536  035D  3000               	movlw	0
  2537  035E  05C5               	andwf	___flmul@prod+3,f
  2538  035F                     l1496:
  2539  035F  1C41               	btfss	___flmul@bexp,0
  2540  0360  2B62               	goto	u1941
  2541  0361  2B63               	goto	u1940
  2542  0362                     u1941:
  2543  0362  2B64               	goto	l1500
  2544  0363                     u1940:
  2545  0363                     l1498:
  2546  0363  17C4               	bsf	___flmul@prod+2,7
  2547  0364                     l1500:
  2548  0364  0841               	movf	___flmul@bexp,w
  2549  0365  00B6               	movwf	??___flmul
  2550  0366  1003               	clrc
  2551  0367  0C36               	rrf	??___flmul,w
  2552  0368  00B7               	movwf	??___flmul+1
  2553  0369  0837               	movf	??___flmul+1,w
  2554  036A  00C5               	movwf	___flmul@prod+3
  2555  036B                     l589:
  2556  036B  083B               	movf	___flmul@sign,w
  2557  036C  00B6               	movwf	??___flmul
  2558  036D  0836               	movf	??___flmul,w
  2559  036E  04C5               	iorwf	___flmul@prod+3,f
  2560  036F                     l1502:
  2561  036F  0845               	movf	___flmul@prod+3,w
  2562  0370  00B1               	movwf	?___flmul+3
  2563  0371  0844               	movf	___flmul@prod+2,w
  2564  0372  00B0               	movwf	?___flmul+2
  2565  0373  0843               	movf	___flmul@prod+1,w
  2566  0374  00AF               	movwf	?___flmul+1
  2567  0375  0842               	movf	___flmul@prod,w
  2568  0376  00AE               	movwf	?___flmul
  2569  0377                     l577:
  2570  0377  0008               	return
  2571  0378                     __end_of___flmul:
  2572                           
  2573                           	psect	text7
  2574  0561                     __ptext7:	
  2575 ;; *************** function __Umul8_16 *****************
  2576 ;; Defined at:
  2577 ;;		line 4 in file "C:\Program Files\Microchip\xc8\v2.31\pic\sources\c90\common\Umul8_16.c"
  2578 ;; Parameters:    Size  Location     Type
  2579 ;;  multiplier      1    wreg     unsigned char 
  2580 ;;  multiplicand    1    4[COMMON] unsigned char 
  2581 ;; Auto vars:     Size  Location     Type
  2582 ;;  multiplier      1    6[BANK0 ] unsigned char 
  2583 ;;  word_mpld       2    4[BANK0 ] unsigned int 
  2584 ;;  product         2    2[BANK0 ] unsigned int 
  2585 ;; Return value:  Size  Location     Type
  2586 ;;                  2    4[COMMON] unsigned int 
  2587 ;; Registers used:
  2588 ;;		wreg, status,2, status,0
  2589 ;; Tracked objects:
  2590 ;;		On entry : 0/0
  2591 ;;		On exit  : 0/0
  2592 ;;		Unchanged: 0/0
  2593 ;; Data sizes:     COMMON   BANK0   BANK1   BANK3   BANK2
  2594 ;;      Params:         2       0       0       0       0
  2595 ;;      Locals:         0       5       0       0       0
  2596 ;;      Temps:          0       2       0       0       0
  2597 ;;      Totals:         2       7       0       0       0
  2598 ;;Total ram usage:        9 bytes
  2599 ;; Hardware stack levels used:    1
  2600 ;; Hardware stack levels required when called:    3
  2601 ;; This function calls:
  2602 ;;		Nothing
  2603 ;; This function is called by:
  2604 ;;		___flmul
  2605 ;; This function uses a non-reentrant model
  2606 ;;
  2607                           
  2608                           
  2609                           ;psect for function __Umul8_16
  2610  0561                     __Umul8_16:
  2611                           
  2612                           ;incstack = 0
  2613                           ; Regs used in __Umul8_16: [wreg+status,2+status,0]
  2614                           ;__Umul8_16@multiplier stored from wreg
  2615  0561  1283               	bcf	3,5	;RP0=0, select bank0
  2616  0562  1303               	bcf	3,6	;RP1=0, select bank0
  2617  0563  00A6               	movwf	__Umul8_16@multiplier
  2618  0564                     l1298:
  2619  0564  01A2               	clrf	__Umul8_16@product
  2620  0565  01A3               	clrf	__Umul8_16@product+1
  2621  0566                     l1300:
  2622  0566  0874               	movf	__Umul8_16@multiplicand,w
  2623  0567  00A0               	movwf	??__Umul8_16
  2624  0568  01A1               	clrf	??__Umul8_16+1
  2625  0569  0820               	movf	??__Umul8_16,w
  2626  056A  00A4               	movwf	__Umul8_16@word_mpld
  2627  056B  0821               	movf	??__Umul8_16+1,w
  2628  056C  00A5               	movwf	__Umul8_16@word_mpld+1
  2629  056D                     l1302:
  2630  056D  1C26               	btfss	__Umul8_16@multiplier,0
  2631  056E  2D70               	goto	u1421
  2632  056F  2D71               	goto	u1420
  2633  0570                     u1421:
  2634  0570  2D77               	goto	l596
  2635  0571                     u1420:
  2636  0571                     l1304:
  2637  0571  0824               	movf	__Umul8_16@word_mpld,w
  2638  0572  07A2               	addwf	__Umul8_16@product,f
  2639  0573  1803               	skipnc
  2640  0574  0AA3               	incf	__Umul8_16@product+1,f
  2641  0575  0825               	movf	__Umul8_16@word_mpld+1,w
  2642  0576  07A3               	addwf	__Umul8_16@product+1,f
  2643  0577                     l596:
  2644  0577  3001               	movlw	1
  2645  0578                     u1435:
  2646  0578  1003               	clrc
  2647  0579  0DA4               	rlf	__Umul8_16@word_mpld,f
  2648  057A  0DA5               	rlf	__Umul8_16@word_mpld+1,f
  2649  057B  3EFF               	addlw	-1
  2650  057C  1D03               	skipz
  2651  057D  2D78               	goto	u1435
  2652  057E  1003               	clrc
  2653  057F  0CA6               	rrf	__Umul8_16@multiplier,f
  2654  0580                     l1306:
  2655  0580  0826               	movf	__Umul8_16@multiplier,w
  2656  0581  1D03               	btfss	3,2
  2657  0582  2D84               	goto	u1441
  2658  0583  2D85               	goto	u1440
  2659  0584                     u1441:
  2660  0584  2D6D               	goto	l1302
  2661  0585                     u1440:
  2662  0585                     l1308:
  2663  0585  0823               	movf	__Umul8_16@product+1,w
  2664  0586  00F5               	movwf	?__Umul8_16+1
  2665  0587  0822               	movf	__Umul8_16@product,w
  2666  0588  00F4               	movwf	?__Umul8_16
  2667  0589                     l598:
  2668  0589  0008               	return
  2669  058A                     __end_of__Umul8_16:
  2670                           
  2671                           	psect	text8
  2672  058A                     __ptext8:	
  2673 ;; *************** function _isr *****************
  2674 ;; Defined at:
  2675 ;;		line 60 in file "main.c"
  2676 ;; Parameters:    Size  Location     Type
  2677 ;;		None
  2678 ;; Auto vars:     Size  Location     Type
  2679 ;;		None
  2680 ;; Return value:  Size  Location     Type
  2681 ;;                  1    wreg      void 
  2682 ;; Registers used:
  2683 ;;		wreg, status,2, status,0, pclath, cstack
  2684 ;; Tracked objects:
  2685 ;;		On entry : 0/0
  2686 ;;		On exit  : 0/0
  2687 ;;		Unchanged: 0/0
  2688 ;; Data sizes:     COMMON   BANK0   BANK1   BANK3   BANK2
  2689 ;;      Params:         0       0       0       0       0
  2690 ;;      Locals:         0       0       0       0       0
  2691 ;;      Temps:          3       0       0       0       0
  2692 ;;      Totals:         3       0       0       0       0
  2693 ;;Total ram usage:        3 bytes
  2694 ;; Hardware stack levels used:    1
  2695 ;; Hardware stack levels required when called:    2
  2696 ;; This function calls:
  2697 ;;		_spiRead
  2698 ;;		_spiWrite
  2699 ;; This function is called by:
  2700 ;;		Interrupt level 1
  2701 ;; This function uses a non-reentrant model
  2702 ;;
  2703                           
  2704                           
  2705                           ;psect for function _isr
  2706  058A                     _isr:
  2707  058A                     i1l998:
  2708                           
  2709                           ;main.c: 61:        if(PIR1bits.SSPIF){
  2710  058A  1283               	bcf	3,5	;RP0=0, select bank0
  2711  058B  1303               	bcf	3,6	;RP1=0, select bank0
  2712  058C  1D8C               	btfss	12,3	;volatile
  2713  058D  2D8F               	goto	u71_21
  2714  058E  2D90               	goto	u71_20
  2715  058F                     u71_21:
  2716  058F  2DA5               	goto	i1l51
  2717  0590                     u71_20:
  2718  0590                     i1l1000:
  2719                           
  2720                           ;main.c: 62:         PIR1bits.SSPIF = 0;
  2721  0590  118C               	bcf	12,3	;volatile
  2722  0591                     i1l1002:
  2723                           
  2724                           ;main.c: 63:         valor = spiRead();
  2725  0591  120A  118A  25D9  120A  118A  	fcall	_spiRead
  2726  0596  00F1               	movwf	??_isr
  2727  0597  0871               	movf	??_isr,w
  2728  0598  00F8               	movwf	_valor
  2729  0599                     i1l1004:
  2730                           
  2731                           ;main.c: 64:         if(valor == 'T') spiWrite(temperature);
  2732  0599  3054               	movlw	84
  2733  059A  0678               	xorwf	_valor,w
  2734  059B  1D03               	btfss	3,2
  2735  059C  2D9E               	goto	u72_21
  2736  059D  2D9F               	goto	u72_20
  2737  059E                     u72_21:
  2738  059E  2DA5               	goto	i1l51
  2739  059F                     u72_20:
  2740  059F                     i1l1006:
  2741  059F  0879               	movf	_temperature,w
  2742  05A0  120A  118A  25E9  120A  118A  	fcall	_spiWrite
  2743  05A5                     i1l51:
  2744  05A5  0873               	movf	??_isr+2,w
  2745  05A6  008A               	movwf	10
  2746  05A7  0E72               	swapf	??_isr+1,w
  2747  05A8  0083               	movwf	3
  2748  05A9  0EFE               	swapf	btemp,f
  2749  05AA  0E7E               	swapf	btemp,w
  2750  05AB  0009               	retfie
  2751  05AC                     __end_of_isr:
  2752                           
  2753                           	psect	intentry
  2754  0004                     __pintentry:	
  2755                           ;incstack = 0
  2756                           ; Regs used in _isr: [wreg+status,2+status,0+pclath+cstack]
  2757                           
  2758  0004                     interrupt_function:
  2759  007E                     saved_w	set	btemp
  2760  0004  00FE               	movwf	btemp
  2761  0005  0E03               	swapf	3,w
  2762  0006  00F2               	movwf	??_isr+1
  2763  0007  080A               	movf	10,w
  2764  0008  00F3               	movwf	??_isr+2
  2765  0009  120A  118A  2D8A   	ljmp	_isr
  2766                           
  2767                           	psect	text9
  2768  05E9                     __ptext9:	
  2769 ;; *************** function _spiWrite *****************
  2770 ;; Defined at:
  2771 ;;		line 34 in file "spi.c"
  2772 ;; Parameters:    Size  Location     Type
  2773 ;;  dat             1    wreg     unsigned char 
  2774 ;; Auto vars:     Size  Location     Type
  2775 ;;  dat             1    0[COMMON] unsigned char 
  2776 ;; Return value:  Size  Location     Type
  2777 ;;                  1    wreg      void 
  2778 ;; Registers used:
  2779 ;;		wreg
  2780 ;; Tracked objects:
  2781 ;;		On entry : 0/0
  2782 ;;		On exit  : 0/0
  2783 ;;		Unchanged: 0/0
  2784 ;; Data sizes:     COMMON   BANK0   BANK1   BANK3   BANK2
  2785 ;;      Params:         0       0       0       0       0
  2786 ;;      Locals:         1       0       0       0       0
  2787 ;;      Temps:          0       0       0       0       0
  2788 ;;      Totals:         1       0       0       0       0
  2789 ;;Total ram usage:        1 bytes
  2790 ;; Hardware stack levels used:    1
  2791 ;; This function calls:
  2792 ;;		Nothing
  2793 ;; This function is called by:
  2794 ;;		_isr
  2795 ;; This function uses a non-reentrant model
  2796 ;;
  2797                           
  2798                           
  2799                           ;psect for function _spiWrite
  2800  05E9                     _spiWrite:
  2801                           
  2802                           ;incstack = 0
  2803                           ; Regs used in _spiWrite: [wreg]
  2804                           ;spiWrite@dat stored from wreg
  2805  05E9  00F0               	movwf	spiWrite@dat
  2806  05EA                     i1l746:
  2807                           
  2808                           ;spi.c: 34: void spiWrite(char dat);spi.c: 35: {;spi.c: 36:     SSPBUF = dat;
  2809  05EA  0870               	movf	spiWrite@dat,w
  2810  05EB  1283               	bcf	3,5	;RP0=0, select bank0
  2811  05EC  1303               	bcf	3,6	;RP1=0, select bank0
  2812  05ED  0093               	movwf	19	;volatile
  2813  05EE                     i1l94:
  2814  05EE  0008               	return
  2815  05EF                     __end_of_spiWrite:
  2816                           
  2817                           	psect	text10
  2818  05D9                     __ptext10:	
  2819 ;; *************** function _spiRead *****************
  2820 ;; Defined at:
  2821 ;;		line 47 in file "spi.c"
  2822 ;; Parameters:    Size  Location     Type
  2823 ;;		None
  2824 ;; Auto vars:     Size  Location     Type
  2825 ;;		None
  2826 ;; Return value:  Size  Location     Type
  2827 ;;                  1    wreg      unsigned char 
  2828 ;; Registers used:
  2829 ;;		wreg, status,2, status,0, pclath, cstack
  2830 ;; Tracked objects:
  2831 ;;		On entry : 0/0
  2832 ;;		On exit  : 0/0
  2833 ;;		Unchanged: 0/0
  2834 ;; Data sizes:     COMMON   BANK0   BANK1   BANK3   BANK2
  2835 ;;      Params:         0       0       0       0       0
  2836 ;;      Locals:         0       0       0       0       0
  2837 ;;      Temps:          0       0       0       0       0
  2838 ;;      Totals:         0       0       0       0       0
  2839 ;;Total ram usage:        0 bytes
  2840 ;; Hardware stack levels used:    1
  2841 ;; Hardware stack levels required when called:    1
  2842 ;; This function calls:
  2843 ;;		_spiReceiveWait
  2844 ;; This function is called by:
  2845 ;;		_isr
  2846 ;; This function uses a non-reentrant model
  2847 ;;
  2848                           
  2849                           
  2850                           ;psect for function _spiRead
  2851  05D9                     _spiRead:
  2852  05D9                     i1l740:	
  2853                           ;incstack = 0
  2854                           ; Regs used in _spiRead: [wreg+status,2+status,0+pclath+cstack]
  2855                           
  2856                           
  2857                           ;spi.c: 49:     spiReceiveWait();
  2858  05D9  120A  118A  25E2  120A  118A  	fcall	_spiReceiveWait
  2859  05DE                     i1l742:
  2860                           
  2861                           ;spi.c: 50:     return(SSPBUF);
  2862  05DE  1283               	bcf	3,5	;RP0=0, select bank0
  2863  05DF  1303               	bcf	3,6	;RP1=0, select bank0
  2864  05E0  0813               	movf	19,w	;volatile
  2865  05E1                     i1l102:
  2866  05E1  0008               	return
  2867  05E2                     __end_of_spiRead:
  2868                           
  2869                           	psect	text11
  2870  05E2                     __ptext11:	
  2871 ;; *************** function _spiReceiveWait *****************
  2872 ;; Defined at:
  2873 ;;		line 29 in file "spi.c"
  2874 ;; Parameters:    Size  Location     Type
  2875 ;;		None
  2876 ;; Auto vars:     Size  Location     Type
  2877 ;;		None
  2878 ;; Return value:  Size  Location     Type
  2879 ;;                  1    wreg      void 
  2880 ;; Registers used:
  2881 ;;		None
  2882 ;; Tracked objects:
  2883 ;;		On entry : 0/0
  2884 ;;		On exit  : 0/0
  2885 ;;		Unchanged: 0/0
  2886 ;; Data sizes:     COMMON   BANK0   BANK1   BANK3   BANK2
  2887 ;;      Params:         0       0       0       0       0
  2888 ;;      Locals:         0       0       0       0       0
  2889 ;;      Temps:          0       0       0       0       0
  2890 ;;      Totals:         0       0       0       0       0
  2891 ;;Total ram usage:        0 bytes
  2892 ;; Hardware stack levels used:    1
  2893 ;; This function calls:
  2894 ;;		Nothing
  2895 ;; This function is called by:
  2896 ;;		_spiRead
  2897 ;; This function uses a non-reentrant model
  2898 ;;
  2899                           
  2900                           
  2901                           ;psect for function _spiReceiveWait
  2902  05E2                     _spiReceiveWait:
  2903  05E2                     i1l694:	
  2904                           ;incstack = 0
  2905                           ; Regs used in _spiReceiveWait: []
  2906                           
  2907  05E2                     i1l88:	
  2908                           ;spi.c: 31:     while ( !SSPSTATbits.BF );
  2909                           
  2910  05E2  1683               	bsf	3,5	;RP0=1, select bank1
  2911  05E3  1303               	bcf	3,6	;RP1=0, select bank1
  2912  05E4  1C14               	btfss	20,0	;volatile
  2913  05E5  2DE7               	goto	u1_21
  2914  05E6  2DE8               	goto	u1_20
  2915  05E7                     u1_21:
  2916  05E7  2DE2               	goto	i1l88
  2917  05E8                     u1_20:
  2918  05E8                     i1l91:
  2919  05E8  0008               	return
  2920  05E9                     __end_of_spiReceiveWait:
  2921  007E                     btemp	set	126	;btemp
  2922  007E                     wtemp0	set	126
  2923                           
  2924                           	psect	config
  2925                           
  2926                           ;Config register CONFIG1 @ 0x2007
  2927                           ;	Oscillator Selection bits
  2928                           ;	FOSC = INTRC_NOCLKOUT, INTOSCIO oscillator: I/O function on RA6/OSC2/CLKOUT pin, I/O f
      +                          unction on RA7/OSC1/CLKIN
  2929                           ;	Watchdog Timer Enable bit
  2930                           ;	WDTE = OFF, WDT disabled and can be enabled by SWDTEN bit of the WDTCON register
  2931                           ;	Power-up Timer Enable bit
  2932                           ;	PWRTE = OFF, PWRT disabled
  2933                           ;	RE3/MCLR pin function select bit
  2934                           ;	MCLRE = OFF, RE3/MCLR pin function is digital input, MCLR internally tied to VDD
  2935                           ;	Code Protection bit
  2936                           ;	CP = OFF, Program memory code protection is disabled
  2937                           ;	Data Code Protection bit
  2938                           ;	CPD = OFF, Data memory code protection is disabled
  2939                           ;	Brown Out Reset Selection bits
  2940                           ;	BOREN = OFF, BOR disabled
  2941                           ;	Internal External Switchover bit
  2942                           ;	IESO = OFF, Internal/External Switchover mode is disabled
  2943                           ;	Fail-Safe Clock Monitor Enabled bit
  2944                           ;	FCMEN = OFF, Fail-Safe Clock Monitor is disabled
  2945                           ;	Low Voltage Programming Enable bit
  2946                           ;	LVP = OFF, RB3 pin has digital I/O, HV on MCLR must be used for programming
  2947                           ;	In-Circuit Debugger Mode bit
  2948                           ;	DEBUG = 0x1, unprogrammed default
  2949  2007                     	org	8199
  2950  2007  20D4               	dw	8404
  2951                           
  2952                           ;Config register CONFIG2 @ 0x2008
  2953                           ;	Brown-out Reset Selection bit
  2954                           ;	BOR4V = BOR40V, Brown-out Reset set to 4.0V
  2955                           ;	Flash Program Memory Self Write Enable bits
  2956                           ;	WRT = OFF, Write protection off
  2957  2008                     	org	8200
  2958  2008  3FFF               	dw	16383

Data Sizes:
    Strings     0
    Constant    0
    Data        0
    BSS         4
    Persistent  0
    Stack       0

Auto Spaces:
    Space          Size  Autos    Used
    COMMON           14      6      10
    BANK0            80     52      52
    BANK1            80      0       0
    BANK3            96      0       0
    BANK2            96      0       0

Pointer List with Targets:

    None.

Critical Paths under _main in COMMON

    _main->_readADC
    ___flmul->__Umul8_16

Critical Paths under _isr in COMMON

    _isr->_spiWrite

Critical Paths under _main in BANK0

    _main->___fltol
    ___fltol->___flmul
    ___flmul->___xxtofl

Critical Paths under _isr in BANK0

    None.

Critical Paths under _main in BANK1

    None.

Critical Paths under _isr in BANK1

    None.

Critical Paths under _main in BANK3

    None.

Critical Paths under _isr in BANK3

    None.

Critical Paths under _main in BANK2

    None.

Critical Paths under _isr in BANK2

    None.

Call Graph Tables:

 ---------------------------------------------------------------------------------
 (Depth) Function   	        Calls       Base Space   Used Autos Params    Refs
 ---------------------------------------------------------------------------------
 (0) _main                                                 1     1      0    4833
                                             51 BANK0      1     1      0
                            ___flmul
                            ___fltol
                           ___xxtofl
                            _initADC
                            _readADC
                            _spiInit
 ---------------------------------------------------------------------------------
 (1) _spiInit                                              4     1      3     456
                                              4 COMMON     1     1      0
                                              0 BANK0      3     0      3
 ---------------------------------------------------------------------------------
 (1) _readADC                                             10     8      2      31
                                              4 COMMON     2     0      2
                                              0 BANK0      8     8      0
 ---------------------------------------------------------------------------------
 (1) _initADC                                              0     0      0       0
 ---------------------------------------------------------------------------------
 (1) ___xxtofl                                            14    10      4     566
                                              0 BANK0     14    10      4
 ---------------------------------------------------------------------------------
 (1) ___fltol                                             11     7      4     427
                                             40 BANK0     11     7      4
                            ___flmul (ARG)
                           ___xxtofl (ARG)
 ---------------------------------------------------------------------------------
 (1) ___flmul                                             26    18      8    3353
                                             14 BANK0     26    18      8
                          __Umul8_16
                           ___xxtofl (ARG)
 ---------------------------------------------------------------------------------
 (2) __Umul8_16                                            9     7      2     980
                                              4 COMMON     2     0      2
                                              0 BANK0      7     7      0
 ---------------------------------------------------------------------------------
 Estimated maximum stack depth 2
 ---------------------------------------------------------------------------------
 (Depth) Function   	        Calls       Base Space   Used Autos Params    Refs
 ---------------------------------------------------------------------------------
 (3) _isr                                                  3     3      0      15
                                              1 COMMON     3     3      0
                            _spiRead
                           _spiWrite
 ---------------------------------------------------------------------------------
 (4) _spiWrite                                             1     1      0      15
                                              0 COMMON     1     1      0
 ---------------------------------------------------------------------------------
 (4) _spiRead                                              0     0      0       0
                     _spiReceiveWait
 ---------------------------------------------------------------------------------
 (5) _spiReceiveWait                                       0     0      0       0
 ---------------------------------------------------------------------------------
 Estimated maximum stack depth 5
 ---------------------------------------------------------------------------------

 Call Graph Graphs:

 _main (ROOT)
   ___flmul
     __Umul8_16
     ___xxtofl (ARG)
   ___fltol
     ___flmul (ARG)
       __Umul8_16
       ___xxtofl (ARG)
     ___xxtofl (ARG)
   ___xxtofl
   _initADC
   _readADC
   _spiInit

 _isr (ROOT)
   _spiRead
     _spiReceiveWait
   _spiWrite

 Address spaces:
Name               Size   Autos  Total    Cost      Usage
BITCOMMON            E      0       0       0        0.0%
EEDATA             100      0       0       0        0.0%
NULL                 0      0       0       0        0.0%
CODE                 0      0       0       0        0.0%
COMMON               E      6       A       1       71.4%
BITSFR0              0      0       0       1        0.0%
SFR0                 0      0       0       1        0.0%
BITSFR1              0      0       0       2        0.0%
SFR1                 0      0       0       2        0.0%
STACK                0      0       0       2        0.0%
ABS                  0      0      3E       3        0.0%
BITBANK0            50      0       0       4        0.0%
BITSFR3              0      0       0       4        0.0%
SFR3                 0      0       0       4        0.0%
BANK0               50     34      34       5       65.0%
BITSFR2              0      0       0       5        0.0%
SFR2                 0      0       0       5        0.0%
BITBANK1            50      0       0       6        0.0%
BANK1               50      0       0       7        0.0%
BITBANK3            60      0       0       8        0.0%
BANK3               60      0       0       9        0.0%
BITBANK2            60      0       0      10        0.0%
BANK2               60      0       0      11        0.0%
DATA                 0      0      3E      12        0.0%


Microchip Technology PIC Macro Assembler V2.31 build 20201012212115 
Symbol Table                                                                                   Mon Feb 15 18:24:22 2021

            _SSPSTATbits 0094                       l62 05D8                       l65 053A  
                     l68 0560                       l84 05C4                       l85 05C9  
    __Umul8_16@word_mpld 0024                      l381 0517                      l621 039C  
                    l374 052C                      l623 0433                      l384 052C  
                    l720 05CA                      l634 03FD                      l722 05D0  
                    l635 0409                      l627 03E1                      l724 05D3  
                    l726 05D4                      l583 02E3                      l728 05D5  
                    l577 0377                      l596 0577                      l589 036B  
                    l598 0589                      _isr 058A             ___flmul@aexp 003C  
           ___flmul@bexp 0041             ___flmul@sign 003B             ___flmul@temp 0046  
           ___flmul@prod 0042             ___fltol@exp1 0052                     l1300 0566  
                   l1302 056D                     l1304 0571                     l1400 0069  
                   l1320 05C3                     l1312 05AD                     l1306 0580  
                   l1410 0084                     l1402 0071                     l1330 04B1  
                   l1322 0530                     l1314 05B4                     l1308 0585  
                   l1500 0364                     l1420 0106                     l1412 0094  
                   l1404 0076                     l1340 04DD                     l1332 04BE  
                   l1324 0539                     l1316 05BA                     l1502 036F  
                   l1430 0174                     l1422 0122                     l1414 00A1  
                   l1406 007B                     l1342 04E5                     l1510 0384  
                   l1326 053E                     l1318 05BC                     l1440 0204  
                   l1432 0184                     l1424 013E                     l1416 00BE  
                   l1360 050C                     l1352 04F3                     l1344 04E7  
                   l1336 04C7                     l1520 03B2                     l1512 0394  
                   l1450 0298                     l1442 0214                     l1434 01A1  
                   l1426 0147                     l1418 00DA                     l1370 0024  
                   l1362 051C                     l1346 04EB                     l1354 0505  
                   l1338 04DC                     l1530 03E8                     l1522 03BF  
                   l1514 03A4                     l1506 037B                     l1460 02BD  
                   l1452 02A6                     l1444 0241                     l1436 01BA  
                   l1428 0157                     l1380 003B                     l1372 0028  
                   l1364 0521                     l1540 0421                     l1532 03F3  
                   l1524 03C6                     l1508 0380                     l1470 02E0  
                   l1454 02AF                     l1462 02C3                     l1446 0267  
                   l1438 01D7                     l1390 0054                     l1382 003D  
                   l1374 0029                     l1366 0017                     l1542 0426  
                   l1534 03F7                     l1526 03CA                     l1518 03AD  
                   l1550 0434                     l1480 02FF                     l1464 02C7  
                   l1456 02B3                     l1448 028F                     l1392 0055  
                   l1384 0045                     l1376 002E                     l1368 001E  
                   l1544 042A                     l1536 0401                     l1528 03D8  
                   l1560 0440                     l1552 043C                     l1298 0564  
                   l1490 0345                     l1482 0318                     l1474 02E8  
                   l1466 02C8                     l1458 02B4                     l1394 005A  
                   l1386 004A                     l1378 0033                     l1546 042B  
                   l1538 040B                     l1570 0499                     l1562 044B  
                   l1554 043D                     l1492 034F                     l1476 02ED  
                   l1484 031E                     l1468 02CC                     l1396 005F  
                   l1388 0050                     l1572 049F                     l1564 0450  
                   l1556 043E                     l1494 0351                     l1486 032B  
                   l1478 02FB                     l1398 0067                     l1574 04A2  
                   l1566 045A                     l1558 043F                     l1496 035F  
                   l1488 0336                     l1576 04A8                     l1568 0497  
                   l1498 0363                     l1578 04AB                     ?_isr 0070  
                   u2010 03E7                     u2011 03E6                     u2100 04A8  
                   u2005 03D9                     u2101 04A7                     u2030 03F7  
                   u2031 03F6                     u2040 03FD                     u2041 03FC  
                   u2025 03EC                     u2050 0401                     u2051 0400  
                   u1420 0571                     u1500 04EB                     u2060 0416  
                   u1421 0570                     u1501 04EA                     u1510 04F2  
                   u2070 0426                     u1511 04F1                     u2071 0425  
                   u1440 0585                     u1600 0033                     u2080 042A  
                   u1441 0584                     u1601 0032                     u2081 0429  
                   u2065 0411                     u1610 0054                     u1530 0504  
                   u1450 05B4                     u2090 049F                     u1435 0578  
                   u1611 0053                     u1531 0503                     u1451 05B3  
                   u2091 049E                     u1620 005A                     u1540 050B  
                   u1460 053E                     u1621 0059                     u1541 050A  
                   u1525 04F4                     u1461 053D                     u1630 005F  
                   u1711 0166                     u1631 005E                     u1712 016D  
                   u1640 0076                     u1560 051C                     u1480 04BE  
                   u1801 0281                     u1721 0193                     u1713 0174  
                   u1705 0140                     u1641 0075                     u1561 051B  
                   u1481 04BD                     u1802 0288                     u1722 019A  
                   u1650 007B                     u1570 0521                     u1490 04D5  
                   u1803 028F                     u1723 01A1                     u1651 007A  
                   u1571 0520                     u1555 050E                     u1475 0545  
                   u1900 02FF                     u1580 0028                     u1901 02FE  
                   u1741 01C9                     u1661 00CC                     u1581 0027  
                   u1910 030E                     u1830 02B3                     u1742 01D0  
                   u1662 00D3                     u1590 002E                     u1831 02B2  
                   u1815 0291                     u1751 01F6                     u1743 01D7  
                   u1735 01A3                     u1671 00E8                     u1663 00DA  
                   u1591 002D                     u1495 04D0                     u1920 032B  
                   u1752 01FD                     u1672 00EF                     u1921 032A  
                   u1825 02A8                     u1761 0223                     u1753 0204  
                   u1681 0114                     u1673 00F6                     u1930 0345  
                   u1850 02C7                     u1770 024D                     u1762 022A  
                   u1682 011B                     u1931 0344                     u1915 0309  
                   u1851 02C6                     u1763 0231                     u1691 0130  
                   u1683 0122                     u1940 0363                     u1860 02CC  
                   u1692 0137                     u1941 0362                     u1925 0327  
                   u1861 02CB                     u1845 02B6                     u1781 0259  
                   u1693 013E                     u1870 02E0                     u1790 0275  
                   u1782 0260                     u1950 0380                     u1935 0341  
                   u1871 02DF                     u1783 0267                     u1775 0248  
                   u1951 037F                     u1880 02E7                     u1960 0384  
                   u1881 02E6                     u1961 0383                     u1890 02ED  
                   u1970 03A4                     u1891 02EC                     u1795 0270  
                   u1971 03A3                     u1990 03C5                     u1991 03C4  
                   u1985 03B7                     i1l51 05A5                     i1l91 05E8  
                   i1l94 05EE                     i1l88 05E2                     u1_20 05E8  
                   u1_21 05E7                     _main 0434                     btemp 007E  
                   start 000C                    ??_isr 0071            ___fltol@sign1 0051  
                  ?_main 0070          __end_of___flmul 0378          __end_of___fltol 052D  
                  _ANSEL 0188                    i1l102 05E1                    i1l740 05D9  
                  i1l742 05DE                    i1l746 05EA                    i1l694 05E2  
                  i1l998 058A                    _PORTB 0006                    _PORTD 0008  
                  u71_20 0590                    u71_21 058F                    u72_20 059F  
                  u72_21 059E                    _TRISB 0086                    _TRISD 0088  
        __end_of_initADC 05D9          __end_of_readADC 0561                    _valor 0078  
                  pclath 000A          __end_of_spiInit 05CA          __end_of_spiRead 05E2  
                  status 0003                    wtemp0 007E          __initialization 000F  
           __end_of_main 04B1                   ??_main 0053                   _ADRESH 001E  
                 _ADRESL 009E                   i1l1000 0590                   i1l1002 0591  
                 i1l1004 0599                   i1l1006 059F                   _TRISC3 043B  
                 _TRISC5 043D                   _SSPCON 0014                   _SSPBUF 0013  
       __end_of___xxtofl 0434                ??___flmul 0036                ??___fltol 004C  
              ??_initADC 0074                ??_readADC 0020       __size_of__Umul8_16 0029  
                 saved_w 007E         __end_of_spiWrite 05EF                ??_spiInit 0074  
              ??_spiRead 0070             ___xxtofl@arg 002A             ___xxtofl@exp 0029  
           ___xxtofl@val 0020  __end_of__initialization 0013               ___fltol@f1 0048  
         __pcstackCOMMON 0070        __end_of__Umul8_16 058A               __pmaintext 0434  
             __pintentry 0004  __size_of_spiReceiveWait 0007                ?___xxtofl 0020  
                _SSPSTAT 0094                ?_spiWrite 0070                  ___flmul 0017  
                ___fltol 04B1                  __ptext1 05AC                  __ptext2 052D  
                __ptext3 05CA                  __ptext4 0378                  __ptext5 04B1  
                __ptext6 0017                  __ptext7 0561                  __ptext8 058A  
                __ptext9 05E9                  _initADC 05CA                  _readADC 052D  
           __size_of_isr 0022               ??___xxtofl 0024                  _spiInit 05AC  
                _spiRead 05D9     end_of_initialization 0013               ??_spiWrite 0070  
          ___xxtofl@sign 0028              spiWrite@dat 0070              ___flmul@grs 003D  
         _spiReceiveWait 05E2               readADC@pin 0027      start_initialization 000F  
            __end_of_isr 05AC   __end_of_spiReceiveWait 05E9                __Umul8_16 0561  
              ___flmul@a 0032                ___flmul@b 002E              __pbssCOMMON 0076  
              ___latbits 0002            __pcstackBANK0 0020        __size_of___xxtofl 00BC  
        ?_spiReceiveWait 0070                 ?___flmul 002E                 ?___fltol 0048  
             ?__Umul8_16 0074        __size_of_spiWrite 0006                 ?_initADC 0070  
               ?_readADC 0074                 ?_spiInit 0020                 ?_spiRead 0070  
   spiInit@sTransmitEdge 0022        interrupt_function 0004                 _PIE1bits 008C  
     spiInit@sDataSample 0020                 _PIR1bits 000C               _ADCON0bits 001F  
             _ADCON1bits 009F              ??__Umul8_16 0020         __size_of___flmul 0361  
       __size_of___fltol 007C                 _adcValue 0076         __size_of_initADC 000F  
       __size_of_readADC 0034                 ___xxtofl 0378                 __ptext10 05D9  
               __ptext11 05E2         __size_of_spiInit 001E         __size_of_spiRead 0009  
          __size_of_main 007D                 _spiWrite 05E9             spiInit@sType 0074  
      spiInit@sClockIdle 0021               _INTCONbits 000B                 intlevel1 0000  
       ??_spiReceiveWait 0070   __Umul8_16@multiplicand 0074              _temperature 0079  
   __Umul8_16@multiplier 0026        __Umul8_16@product 0022  
